###############################################################################
#                                                                             #
# IAR C/C++ Compiler V1.40.1.50106 for STM8             28/May/2013  13:15:20 #
# Copyright 2010-2013 IAR Systems AB.                                         #
#                                                                             #
#    Source file  =  C:\SNAP\SNAP_100\stm8s_clk.c                             #
#    Command line =  C:\SNAP\SNAP_100\stm8s_clk.c -e -Oh --code_model small   #
#                    --data_model small -o C:\SNAP\SNAP_100\Release\Obj\      #
#                    --dlib_config "C:\Program Files\IAR Systems\Embedded     #
#                    Workbench 6.5\stm8\LIB\dlstm8ssn.h" -D NDEBUG -D         #
#                    STM8S007 -lC C:\SNAP\SNAP_100\Release\List\ -I .\        #
#                    --no_system_include --vregs 16                           #
#    List file    =  C:\SNAP\SNAP_100\Release\List\stm8s_clk.lst              #
#    Object file  =  C:\SNAP\SNAP_100\Release\Obj\stm8s_clk.o                 #
#                                                                             #
#                                                                             #
###############################################################################

C:\SNAP\SNAP_100\stm8s_clk.c
      1          /**
      2            ******************************************************************************
      3            * @file    stm8s_clk.c
      4            * @author  MCD Application Team
      5            * @version V2.1.0
      6            * @date    18-November-2011
      7            * @brief   This file contains all the functions for the CLK peripheral.
      8            ******************************************************************************
      9            * @attention
     10            *
     11            * THE PRESENT FIRMWARE WHICH IS FOR GUIDANCE ONLY AIMS AT PROVIDING CUSTOMERS
     12            * WITH CODING INFORMATION REGARDING THEIR PRODUCTS IN ORDER FOR THEM TO SAVE
     13            * TIME. AS A RESULT, STMICROELECTRONICS SHALL NOT BE HELD LIABLE FOR ANY
     14            * DIRECT, INDIRECT OR CONSEQUENTIAL DAMAGES WITH RESPECT TO ANY CLAIMS ARISING
     15            * FROM THE CONTENT OF SUCH FIRMWARE AND/OR THE USE MADE BY CUSTOMERS OF THE
     16            * CODING INFORMATION CONTAINED HEREIN IN CONNECTION WITH THEIR PRODUCTS.
     17            *
     18            * <h2><center>&copy; COPYRIGHT 2011 STMicroelectronics</center></h2>
     19            ******************************************************************************
     20            */
     21          
     22          /* Includes ------------------------------------------------------------------*/
     23          
     24          #include "stm8s_clk.h"
     25          
     26          /** @addtogroup STM8S_StdPeriph_Driver
     27            * @{
     28            */
     29          /* Private typedef -----------------------------------------------------------*/
     30          /* Private define ------------------------------------------------------------*/
     31          /* Private macro -------------------------------------------------------------*/
     32          /* Private variables ---------------------------------------------------------*/
     33          /* Private function prototypes -----------------------------------------------*/
     34          
     35          /* Private Constants ---------------------------------------------------------*/
     36          
     37          /**
     38            * @addtogroup CLK_Private_Constants
     39            * @{
     40            */
     41          

   \                                 In section .near.rodata, align 1
     42          CONST uint8_t HSIDivFactor[4] = {1, 2, 4, 8}; /*!< Holds the different HSI Divider factors */
   \                     HSIDivFactor:
   \   000000 01 02 04 08  DC8 1, 2, 4, 8

   \                                 In section .near.rodata, align 1
     43          CONST uint8_t CLKPrescTable[8] = {1, 2, 4, 8, 10, 16, 20, 40}; /*!< Holds the different CLK prescaler values */
   \                     CLKPrescTable:
   \   000000 01 02 04 08  DC8 1, 2, 4, 8, 10, 16, 20, 40
   \          0A 10 14 28 
     44          
     45          /**
     46            * @}
     47            */
     48          
     49          /* Public functions ----------------------------------------------------------*/
     50          /**
     51            * @addtogroup CLK_Public_Functions
     52            * @{
     53            */
     54          
     55          /**
     56            * @brief  Deinitializes the CLK peripheral registers to their default reset
     57            * values.
     58            * @param  None
     59            * @retval None
     60            * @par Warning:
     61            * Resetting the CCOR register: \n
     62            * When the CCOEN bit is set, the reset of the CCOR register require
     63            * two consecutive write instructions in order to reset first the CCOEN bit
     64            * and the second one is to reset the CCOSEL bits.
     65            */

   \                                 In section .near_func.text, align 1
     66          void CLK_DeInit(void)
     67          {
     68          
     69              CLK->ICKR = CLK_ICKR_RESET_VALUE;
   \                     CLK_DeInit:
   \   000000 35 01 50C0   MOV       L:0x50c0, #0x1
     70              CLK->ECKR = CLK_ECKR_RESET_VALUE;
   \   000004 725F 50C1    CLR       L:0x50c1
     71              CLK->SWR  = CLK_SWR_RESET_VALUE;
   \   000008 35 E1 50C4   MOV       L:0x50c4, #0xe1
     72              CLK->SWCR = CLK_SWCR_RESET_VALUE;
   \   00000C 725F 50C5    CLR       L:0x50c5
     73              CLK->CKDIVR = CLK_CKDIVR_RESET_VALUE;
   \   000010 35 18 50C6   MOV       L:0x50c6, #0x18
     74              CLK->PCKENR1 = CLK_PCKENR1_RESET_VALUE;
   \   000014 35 FF 50C7   MOV       L:0x50c7, #0xff
     75              CLK->PCKENR2 = CLK_PCKENR2_RESET_VALUE;
   \   000018 35 FF 50CA   MOV       L:0x50ca, #0xff
     76              CLK->CSSR = CLK_CSSR_RESET_VALUE;
   \   00001C 725F 50C8    CLR       L:0x50c8
     77              CLK->CCOR = CLK_CCOR_RESET_VALUE;
   \   000020 725F 50C9    CLR       L:0x50c9
     78              while ((CLK->CCOR & CLK_CCOR_CCOEN)!= 0)
   \                     ??CLK_DeInit_0:
   \   000024 7200 50C9 FB BTJT      L:0x50c9, #0x0, L:??CLK_DeInit_0
     79              {}
     80              CLK->CCOR = CLK_CCOR_RESET_VALUE;
   \   000029 725F 50C9    CLR       L:0x50c9
     81              CLK->HSITRIMR = CLK_HSITRIMR_RESET_VALUE;
   \   00002D 725F 50CC    CLR       L:0x50cc
     82              CLK->SWIMCCR = CLK_SWIMCCR_RESET_VALUE;
   \   000031 725F 50CD    CLR       L:0x50cd
     83          
     84          }
   \   000035 81           RET
     85          
     86          /**
     87            * @brief   Configures the High Speed Internal oscillator (HSI).
     88            * @par Full description:
     89            * If CLK_FastHaltWakeup is enabled, HSI oscillator is automatically
     90            * switched-on (HSIEN=1) and selected as next clock master
     91            * (CKM=SWI=HSI) when resuming from HALT/ActiveHalt modes.\n
     92            * @param   NewState this parameter is the Wake-up Mode state.
     93            * @retval None
     94            */

   \                                 In section .near_func.text, align 1
   \                     ?Subroutine0:
   \   000000 BF ..        LDW       S:?w1, X
   \   000002 5F           CLRW      X
   \   000003 BF ..        LDW       S:?w0, X
   \   000005 AE ....      LDW       X, #`?<Constant "C:\\\\SNAP\\\\SNAP_100\\\\stm8...">`
   \   000008 CC ....      JP        L:assert_failed

   \                                 In section .near_func.text, align 1
     95          void CLK_FastHaltWakeUpCmd(FunctionalState NewState)
     96          {
     97          
     98              /* check the parameters */
     99              assert_param(IS_FUNCTIONALSTATE_OK(NewState));
   \                     CLK_FastHaltWakeUpCmd:
   \   000000 4D           TNZ       A
   \   000001 27 0F        JREQ      L:??CLK_FastHaltWakeUpCmd_0
   \   000003 A1 01        CP        A, #0x1
   \   000005 27 06        JREQ      L:??CrossCallReturnLabel_0
   \   000007 AE 0063      LDW       X, #0x63
   \   00000A CD ....      CALL      L:?Subroutine0
    100          
    101              if (NewState != DISABLE)
    102              {
    103                  /* Set FHWU bit (HSI oscillator is automatically switched-on) */
    104                  CLK->ICKR |= CLK_ICKR_FHWU;
   \                     ??CrossCallReturnLabel_0:
   \   00000D 7214 50C0    BSET      L:0x50c0, #0x2
   \   000011 81           RET
    105              }
    106              else  /* FastHaltWakeup = DISABLE */
    107              {
    108                  /* Reset FHWU bit */
    109                  CLK->ICKR &= (uint8_t)(~CLK_ICKR_FHWU);
   \                     ??CLK_FastHaltWakeUpCmd_0:
   \   000012 7215 50C0    BRES      L:0x50c0, #0x2
    110              }
    111          
    112          }
   \   000016 81           RET
    113          
    114          /**
    115            * @brief  Enable or Disable the External High Speed oscillator (HSE).
    116            * @param   NewState new state of HSEEN, value accepted ENABLE, DISABLE.
    117            * @retval None
    118            */

   \                                 In section .near_func.text, align 1
    119          void CLK_HSECmd(FunctionalState NewState)
    120          {
    121          
    122              /* Check the parameters */
    123              assert_param(IS_FUNCTIONALSTATE_OK(NewState));
   \                     CLK_HSECmd:
   \   000000 4D           TNZ       A
   \   000001 27 0F        JREQ      L:??CLK_HSECmd_0
   \   000003 A1 01        CP        A, #0x1
   \   000005 27 06        JREQ      L:??CrossCallReturnLabel_1
   \   000007 AE 007B      LDW       X, #0x7b
   \   00000A CD ....      CALL      L:?Subroutine0
    124          
    125              if (NewState != DISABLE)
    126              {
    127                  /* Set HSEEN bit */
    128                  CLK->ECKR |= CLK_ECKR_HSEEN;
   \                     ??CrossCallReturnLabel_1:
   \   00000D 7210 50C1    BSET      L:0x50c1, #0x0
   \   000011 81           RET
    129              }
    130              else
    131              {
    132                  /* Reset HSEEN bit */
    133                  CLK->ECKR &= (uint8_t)(~CLK_ECKR_HSEEN);
   \                     ??CLK_HSECmd_0:
   \   000012 7211 50C1    BRES      L:0x50c1, #0x0
    134              }
    135          
    136          }
   \   000016 81           RET
    137          
    138          /**
    139            * @brief  Enables or disables the Internal High Speed oscillator (HSI).
    140            * @param   NewState new state of HSIEN, value accepted ENABLE, DISABLE.
    141            * @retval None
    142            */

   \                                 In section .near_func.text, align 1
    143          void CLK_HSICmd(FunctionalState NewState)
    144          {
    145          
    146              /* Check the parameters */
    147              assert_param(IS_FUNCTIONALSTATE_OK(NewState));
   \                     CLK_HSICmd:
   \   000000 4D           TNZ       A
   \   000001 27 0F        JREQ      L:??CLK_HSICmd_0
   \   000003 A1 01        CP        A, #0x1
   \   000005 27 06        JREQ      L:??CrossCallReturnLabel_2
   \   000007 AE 0093      LDW       X, #0x93
   \   00000A CD ....      CALL      L:?Subroutine0
    148          
    149              if (NewState != DISABLE)
    150              {
    151                  /* Set HSIEN bit */
    152                  CLK->ICKR |= CLK_ICKR_HSIEN;
   \                     ??CrossCallReturnLabel_2:
   \   00000D 7210 50C0    BSET      L:0x50c0, #0x0
   \   000011 81           RET
    153              }
    154              else
    155              {
    156                  /* Reset HSIEN bit */
    157                  CLK->ICKR &= (uint8_t)(~CLK_ICKR_HSIEN);
   \                     ??CLK_HSICmd_0:
   \   000012 7211 50C0    BRES      L:0x50c0, #0x0
    158              }
    159          
    160          }
   \   000016 81           RET
    161          
    162          /**
    163            * @brief  Enables or disables the Internal Low Speed oscillator (LSI).
    164            * @param    NewState new state of LSIEN, value accepted ENABLE, DISABLE.
    165            * @retval None
    166            */

   \                                 In section .near_func.text, align 1
    167          void CLK_LSICmd(FunctionalState NewState)
    168          {
    169          
    170              /* Check the parameters */
    171              assert_param(IS_FUNCTIONALSTATE_OK(NewState));
   \                     CLK_LSICmd:
   \   000000 4D           TNZ       A
   \   000001 27 0F        JREQ      L:??CLK_LSICmd_0
   \   000003 A1 01        CP        A, #0x1
   \   000005 27 06        JREQ      L:??CrossCallReturnLabel_3
   \   000007 AE 00AB      LDW       X, #0xab
   \   00000A CD ....      CALL      L:?Subroutine0
    172          
    173              if (NewState != DISABLE)
    174              {
    175                  /* Set LSIEN bit */
    176                  CLK->ICKR |= CLK_ICKR_LSIEN;
   \                     ??CrossCallReturnLabel_3:
   \   00000D 7216 50C0    BSET      L:0x50c0, #0x3
   \   000011 81           RET
    177              }
    178              else
    179              {
    180                  /* Reset LSIEN bit */
    181                  CLK->ICKR &= (uint8_t)(~CLK_ICKR_LSIEN);
   \                     ??CLK_LSICmd_0:
   \   000012 7217 50C0    BRES      L:0x50c0, #0x3
    182              }
    183          
    184          }
   \   000016 81           RET
    185          
    186          /**
    187            * @brief  Enables or disablle the Configurable Clock Output (CCO).
    188            * @param   NewState : New state of CCEN bit (CCO register).
    189            * This parameter can be any of the @ref FunctionalState enumeration.
    190            * @retval None
    191            */

   \                                 In section .near_func.text, align 1
    192          void CLK_CCOCmd(FunctionalState NewState)
    193          {
    194          
    195              /* Check the parameters */
    196              assert_param(IS_FUNCTIONALSTATE_OK(NewState));
   \                     CLK_CCOCmd:
   \   000000 4D           TNZ       A
   \   000001 27 0F        JREQ      L:??CLK_CCOCmd_0
   \   000003 A1 01        CP        A, #0x1
   \   000005 27 06        JREQ      L:??CrossCallReturnLabel_4
   \   000007 AE 00C4      LDW       X, #0xc4
   \   00000A CD ....      CALL      L:?Subroutine0
    197          
    198              if (NewState != DISABLE)
    199              {
    200                  /* Set CCOEN bit */
    201                  CLK->CCOR |= CLK_CCOR_CCOEN;
   \                     ??CrossCallReturnLabel_4:
   \   00000D 7210 50C9    BSET      L:0x50c9, #0x0
   \   000011 81           RET
    202              }
    203              else
    204              {
    205                  /* Reset CCOEN bit */
    206                  CLK->CCOR &= (uint8_t)(~CLK_CCOR_CCOEN);
   \                     ??CLK_CCOCmd_0:
   \   000012 7211 50C9    BRES      L:0x50c9, #0x0
    207              }
    208          
    209          }
   \   000016 81           RET
    210          
    211          /**
    212            * @brief  Starts or Stops manually the clock switch execution.
    213            * @par Full description:
    214            * NewState parameter set the SWEN.
    215            * @param   NewState new state of SWEN, value accepted ENABLE, DISABLE.
    216            * @retval None
    217            */

   \                                 In section .near_func.text, align 1
    218          void CLK_ClockSwitchCmd(FunctionalState NewState)
    219          {
    220          
    221              /* Check the parameters */
    222              assert_param(IS_FUNCTIONALSTATE_OK(NewState));
   \                     CLK_ClockSwitchCmd:
   \   000000 4D           TNZ       A
   \   000001 27 0F        JREQ      L:??CLK_ClockSwitchCmd_0
   \   000003 A1 01        CP        A, #0x1
   \   000005 27 06        JREQ      L:??CrossCallReturnLabel_5
   \   000007 AE 00DE      LDW       X, #0xde
   \   00000A CD ....      CALL      L:?Subroutine0
    223          
    224              if (NewState != DISABLE )
    225              {
    226                  /* Enable the Clock Switch */
    227                  CLK->SWCR |= CLK_SWCR_SWEN;
   \                     ??CrossCallReturnLabel_5:
   \   00000D 7212 50C5    BSET      L:0x50c5, #0x1
   \   000011 81           RET
    228              }
    229              else
    230              {
    231                  /* Disable the Clock Switch */
    232                  CLK->SWCR &= (uint8_t)(~CLK_SWCR_SWEN);
   \                     ??CLK_ClockSwitchCmd_0:
   \   000012 7213 50C5    BRES      L:0x50c5, #0x1
    233              }
    234          
    235          }
   \   000016 81           RET
    236          
    237          /**
    238            * @brief  Configures the slow active halt wake up
    239            * @param   NewState: specifies the Slow Active Halt wake up state.
    240            * can be set of the following values:
    241            * - DISABLE: Slow Active Halt mode disabled;
    242            * - ENABLE:  Slow Active Halt mode enabled.
    243            * @retval None
    244            */

   \                                 In section .near_func.text, align 1
    245          void CLK_SlowActiveHaltWakeUpCmd(FunctionalState NewState)
    246          {
    247          
    248              /* check the parameters */
    249              assert_param(IS_FUNCTIONALSTATE_OK(NewState));
   \                     CLK_SlowActiveHaltWakeUpCmd:
   \   000000 4D           TNZ       A
   \   000001 27 0F        JREQ      L:??CLK_SlowActiveHaltWakeUpCmd_0
   \   000003 A1 01        CP        A, #0x1
   \   000005 27 06        JREQ      L:??CrossCallReturnLabel_6
   \   000007 AE 00F9      LDW       X, #0xf9
   \   00000A CD ....      CALL      L:?Subroutine0
    250          
    251              if (NewState != DISABLE)
    252              {
    253                  /* Set S_ACTHALT bit */
    254                  CLK->ICKR |= CLK_ICKR_SWUAH;
   \                     ??CrossCallReturnLabel_6:
   \   00000D 721A 50C0    BSET      L:0x50c0, #0x5
   \   000011 81           RET
    255              }
    256              else
    257              {
    258                  /* Reset S_ACTHALT bit */
    259                  CLK->ICKR &= (uint8_t)(~CLK_ICKR_SWUAH);
   \                     ??CLK_SlowActiveHaltWakeUpCmd_0:
   \   000012 721B 50C0    BRES      L:0x50c0, #0x5
    260              }
    261          
    262          }
   \   000016 81           RET
    263          
    264          /**
    265            * @brief   Enables or disables the specified peripheral CLK.
    266            * @param   CLK_Peripheral : This parameter specifies the peripheral clock to gate.
    267            * This parameter can be any of the  @ref CLK_Peripheral_TypeDef enumeration.
    268            * @param   NewState : New state of specified peripheral clock.
    269            * This parameter can be any of the @ref FunctionalState enumeration.
    270            * @retval None
    271            */

   \                                 In section .near_func.text, align 1
    272          void CLK_PeripheralClockConfig(CLK_Peripheral_TypeDef CLK_Peripheral, FunctionalState NewState)
    273          {
   \                     CLK_PeripheralClockConfig:
   \   000000 CD ....      CALL      L:?push_w4
   \   000003 B7 ..        LD        S:?b8, A
   \   000005 45 .. ..     MOV       S:?b9, S:?b0
    274          
    275              /* Check the parameters */
    276              assert_param(IS_FUNCTIONALSTATE_OK(NewState));
   \   000008 3D ..        TNZ       S:?b9
   \   00000A 27 0C        JREQ      L:??CrossCallReturnLabel_8
   \   00000C B6 ..        LD        A, S:?b9
   \   00000E A1 01        CP        A, #0x1
   \   000010 27 06        JREQ      L:??CrossCallReturnLabel_8
   \   000012 AE 0114      LDW       X, #0x114
   \   000015 CD ....      CALL      L:?Subroutine0
    277              assert_param(IS_CLK_PERIPHERAL_OK(CLK_Peripheral));
   \                     ??CrossCallReturnLabel_8:
   \   000018 3D ..        TNZ       S:?b8
   \   00001A 27 30        JREQ      L:??CrossCallReturnLabel_7
   \   00001C B6 ..        LD        A, S:?b8
   \   00001E A1 01        CP        A, #0x1
   \   000020 27 2A        JREQ      L:??CrossCallReturnLabel_7
   \   000022 A1 03        CP        A, #0x3
   \   000024 27 26        JREQ      L:??CrossCallReturnLabel_7
   \   000026 A1 02        CP        A, #0x2
   \   000028 27 22        JREQ      L:??CrossCallReturnLabel_7
   \   00002A A1 04        CP        A, #0x4
   \   00002C 27 1E        JREQ      L:??CrossCallReturnLabel_7
   \   00002E A1 05        CP        A, #0x5
   \   000030 27 1A        JREQ      L:??CrossCallReturnLabel_7
   \   000032 A1 06        CP        A, #0x6
   \   000034 27 16        JREQ      L:??CrossCallReturnLabel_7
   \   000036 A1 07        CP        A, #0x7
   \   000038 27 12        JREQ      L:??CrossCallReturnLabel_7
   \   00003A A1 17        CP        A, #0x17
   \   00003C 27 0E        JREQ      L:??CrossCallReturnLabel_7
   \   00003E A1 13        CP        A, #0x13
   \   000040 27 0A        JREQ      L:??CrossCallReturnLabel_7
   \   000042 A1 12        CP        A, #0x12
   \   000044 27 06        JREQ      L:??CrossCallReturnLabel_7
   \   000046 AE 0115      LDW       X, #0x115
   \   000049 CD ....      CALL      L:?Subroutine0
    278          
    279              if (((uint8_t)CLK_Peripheral & (uint8_t)0x10) == 0x00)
   \                     ??CrossCallReturnLabel_7:
   \   00004C B6 ..        LD        A, S:?b8
   \   00004E A4 0F        AND       A, #0xf
   \   000050 5F           CLRW      X
   \   000051 5C           INCW      X
   \   000052 CD ....      CALL      L:?sll16_x_x_a
   \   000055 41           EXG       A, XL
   \   000056 B7 ..        LD        S:?b0, A
   \   000058 B6 ..        LD        A, S:?b8
   \   00005A A5 10        BCP       A, #0x10
   \   00005C 26 18        JRNE      L:??CLK_PeripheralClockConfig_0
    280              {
    281                  if (NewState != DISABLE)
   \   00005E 3D ..        TNZ       S:?b9
   \   000060 27 07        JREQ      L:??CLK_PeripheralClockConfig_1
    282                  {
    283                      /* Enable the peripheral Clock */
    284                      CLK->PCKENR1 |= (uint8_t)((uint8_t)1 << ((uint8_t)CLK_Peripheral & (uint8_t)0x0F));
   \   000062 B6 ..        LD        A, S:?b0
   \   000064 CA 50C7      OR        A, L:0x50c7
   \   000067 20 07        JRA       L:??CLK_PeripheralClockConfig_2
    285                  }
    286                  else
    287                  {
    288                      /* Disable the peripheral Clock */
    289                      CLK->PCKENR1 &= (uint8_t)(~(uint8_t)(((uint8_t)1 << ((uint8_t)CLK_Peripheral & (uint8_t)0x0F))));
   \                     ??CLK_PeripheralClockConfig_1:
   \   000069 33 ..        CPL       S:?b0
   \   00006B B6 ..        LD        A, S:?b0
   \   00006D C4 50C7      AND       A, L:0x50c7
   \                     ??CLK_PeripheralClockConfig_2:
   \   000070 C7 50C7      LD        L:0x50c7, A
   \   000073 CC ....      JP        L:?epilogue_w4
    290                  }
    291              }
    292              else
    293              {
    294                  if (NewState != DISABLE)
   \                     ??CLK_PeripheralClockConfig_0:
   \   000076 3D ..        TNZ       S:?b9
   \   000078 27 07        JREQ      L:??CLK_PeripheralClockConfig_3
    295                  {
    296                      /* Enable the peripheral Clock */
    297                      CLK->PCKENR2 |= (uint8_t)((uint8_t)1 << ((uint8_t)CLK_Peripheral & (uint8_t)0x0F));
   \   00007A B6 ..        LD        A, S:?b0
   \   00007C CA 50CA      OR        A, L:0x50ca
   \   00007F 20 07        JRA       L:??CLK_PeripheralClockConfig_4
    298                  }
    299                  else
    300                  {
    301                      /* Disable the peripheral Clock */
    302                      CLK->PCKENR2 &= (uint8_t)(~(uint8_t)(((uint8_t)1 << ((uint8_t)CLK_Peripheral & (uint8_t)0x0F))));
   \                     ??CLK_PeripheralClockConfig_3:
   \   000081 33 ..        CPL       S:?b0
   \   000083 B6 ..        LD        A, S:?b0
   \   000085 C4 50CA      AND       A, L:0x50ca
   \                     ??CLK_PeripheralClockConfig_4:
   \   000088 C7 50CA      LD        L:0x50ca, A
    303                  }
    304              }
    305          
    306          }
   \   00008B CC ....      JP        L:?epilogue_w4
    307          
    308          /**
    309            * @brief  configures the Switch from one clock to another
    310            * @param   CLK_SwitchMode select the clock switch mode.
    311            * It can be set of the values of @ref CLK_SwitchMode_TypeDef
    312            * @param   CLK_NewClock choice of the future clock.
    313            * It can be set of the values of @ref CLK_Source_TypeDef
    314            * @param   NewState Enable or Disable the Clock Switch interrupt.
    315            * @param   CLK_CurrentClockState current clock to switch OFF or to keep ON.
    316            * It can be set of the values of @ref CLK_CurrentClockState_TypeDef
    317            * @retval ErrorStatus this shows the clock switch status (ERROR/SUCCESS).
    318            */

   \                                 In section .near_func.text, align 1
    319          ErrorStatus CLK_ClockSwitchConfig(CLK_SwitchMode_TypeDef CLK_SwitchMode, CLK_Source_TypeDef CLK_NewClock, FunctionalState ITState, CLK_CurrentClockState_TypeDef CLK_CurrentClockState)
    320          {
   \                     CLK_ClockSwitchConfig:
   \   000000 CD ....      CALL      L:?push_l2
   \   000003 CD ....      CALL      L:?push_w6
   \   000006 3B ....      PUSH      S:?b14
   \   000009 B7 ..        LD        S:?b12, A
   \   00000B 45 .. ..     MOV       S:?b11, S:?b0
   \   00000E 45 .. ..     MOV       S:?b13, S:?b1
   \   000011 45 .. ..     MOV       S:?b14, S:?b2
    321          
    322              CLK_Source_TypeDef clock_master;
    323              uint16_t DownCounter = CLK_TIMEOUT;
   \   000014 AE 0491      LDW       X, #0x491
   \   000017 BF ..        LDW       S:?w4, X
    324              ErrorStatus Swif = ERROR;
   \   000019 3F ..        CLR       S:?b10
    325          
    326              /* Check the parameters */
    327              assert_param(IS_CLK_SOURCE_OK(CLK_NewClock));
   \   00001B B6 ..        LD        A, S:?b11
   \   00001D A1 E1        CP        A, #0xe1
   \   00001F 27 0E        JREQ      L:??CrossCallReturnLabel_12
   \   000021 A1 D2        CP        A, #0xd2
   \   000023 27 0A        JREQ      L:??CrossCallReturnLabel_12
   \   000025 A1 B4        CP        A, #0xb4
   \   000027 27 06        JREQ      L:??CrossCallReturnLabel_12
   \   000029 AE 0147      LDW       X, #0x147
   \   00002C CD ....      CALL      L:?Subroutine0
    328              assert_param(IS_CLK_SWITCHMODE_OK(CLK_SwitchMode));
   \                     ??CrossCallReturnLabel_12:
   \   00002F 3D ..        TNZ       S:?b12
   \   000031 27 0C        JREQ      L:??CrossCallReturnLabel_11
   \   000033 B6 ..        LD        A, S:?b12
   \   000035 A1 01        CP        A, #0x1
   \   000037 27 06        JREQ      L:??CrossCallReturnLabel_11
   \   000039 AE 0148      LDW       X, #0x148
   \   00003C CD ....      CALL      L:?Subroutine0
    329              assert_param(IS_FUNCTIONALSTATE_OK(ITState));
   \                     ??CrossCallReturnLabel_11:
   \   00003F 3D ..        TNZ       S:?b13
   \   000041 27 0C        JREQ      L:??CrossCallReturnLabel_10
   \   000043 B6 ..        LD        A, S:?b13
   \   000045 A1 01        CP        A, #0x1
   \   000047 27 06        JREQ      L:??CrossCallReturnLabel_10
   \   000049 AE 0149      LDW       X, #0x149
   \   00004C CD ....      CALL      L:?Subroutine0
    330              assert_param(IS_CLK_CURRENTCLOCKSTATE_OK(CLK_CurrentClockState));
   \                     ??CrossCallReturnLabel_10:
   \   00004F 3D ..        TNZ       S:?b14
   \   000051 27 0C        JREQ      L:??CrossCallReturnLabel_9
   \   000053 B6 ..        LD        A, S:?b14
   \   000055 A1 01        CP        A, #0x1
   \   000057 27 06        JREQ      L:??CrossCallReturnLabel_9
   \   000059 AE 014A      LDW       X, #0x14a
   \   00005C CD ....      CALL      L:?Subroutine0
    331          
    332              /* Current clock master saving */
    333              clock_master = (CLK_Source_TypeDef)CLK->CMSR;
   \                     ??CrossCallReturnLabel_9:
   \   00005F C6 50C3      LD        A, L:0x50c3
   \   000062 B7 ..        LD        S:?b0, A
    334          
    335              /* Automatic switch mode management */
    336              if (CLK_SwitchMode == CLK_SWITCHMODE_AUTO)
   \   000064 B6 ..        LD        A, S:?b12
   \   000066 A1 01        CP        A, #0x1
   \   000068 26 29        JRNE      L:??CLK_ClockSwitchConfig_0
    337              {
    338          
    339                  /* Enables Clock switch */
    340                  CLK->SWCR |= CLK_SWCR_SWEN;
   \   00006A 7212 50C5    BSET      L:0x50c5, #0x1
    341          
    342                  /* Enables or Disables Switch interrupt */
    343                  if (ITState != DISABLE)
   \   00006E 3D ..        TNZ       S:?b13
   \   000070 27 06        JREQ      L:??CLK_ClockSwitchConfig_1
    344                  {
    345                      CLK->SWCR |= CLK_SWCR_SWIEN;
   \   000072 7214 50C5    BSET      L:0x50c5, #0x2
   \   000076 20 04        JRA       L:??CLK_ClockSwitchConfig_2
    346                  }
    347                  else
    348                  {
    349                      CLK->SWCR &= (uint8_t)(~CLK_SWCR_SWIEN);
   \                     ??CLK_ClockSwitchConfig_1:
   \   000078 7215 50C5    BRES      L:0x50c5, #0x2
    350                  }
    351          
    352                  /* Selection of the target clock source */
    353                  CLK->SWR = (uint8_t)CLK_NewClock;
   \                     ??CLK_ClockSwitchConfig_2:
   \   00007C B6 ..        LD        A, S:?b11
   \   00007E C7 50C4      LD        L:0x50c4, A
   \   000081 20 05        JRA       L:??CLK_ClockSwitchConfig_3
    354          
    355                  while ((((CLK->SWCR & CLK_SWCR_SWBSY) != 0 )&& (DownCounter != 0)))
   \                     ??CLK_ClockSwitchConfig_4:
   \   000083 27 25        JREQ      L:??CLK_ClockSwitchConfig_5
    356                  {
    357                      DownCounter--;
   \   000085 5A           DECW      X
   \   000086 BF ..        LDW       S:?w4, X
    358                  }
   \                     ??CLK_ClockSwitchConfig_3:
   \   000088 BE ..        LDW       X, S:?w4
   \   00008A 7200 50C5 F4 BTJT      L:0x50c5, #0x0, L:??CLK_ClockSwitchConfig_4
    359          
    360                  if (DownCounter != 0)
   \   00008F 27 19        JREQ      L:??CLK_ClockSwitchConfig_5
    361                  {
    362                      Swif = SUCCESS;
   \   000091 20 13        JRA       L:??CLK_ClockSwitchConfig_6
    363                  }
    364                  else
    365                  {
    366                      Swif = ERROR;
    367                  }
    368          
    369              }
    370              else /* CLK_SwitchMode == CLK_SWITCHMODE_MANUAL */
    371              {
    372          
    373                  /* Enables or Disables Switch interrupt  if required  */
    374                  if (ITState != DISABLE)
   \                     ??CLK_ClockSwitchConfig_0:
   \   000093 3D ..        TNZ       S:?b13
   \   000095 27 06        JREQ      L:??CLK_ClockSwitchConfig_7
    375                  {
    376                      CLK->SWCR |= CLK_SWCR_SWIEN;
   \   000097 7214 50C5    BSET      L:0x50c5, #0x2
   \   00009B 20 04        JRA       L:??CLK_ClockSwitchConfig_8
    377                  }
    378                  else
    379                  {
    380                      CLK->SWCR &= (uint8_t)(~CLK_SWCR_SWIEN);
   \                     ??CLK_ClockSwitchConfig_7:
   \   00009D 7215 50C5    BRES      L:0x50c5, #0x2
    381                  }
    382          
    383                  /* Selection of the target clock source */
    384                  CLK->SWR = (uint8_t)CLK_NewClock;
   \                     ??CLK_ClockSwitchConfig_8:
   \   0000A1 B6 ..        LD        A, S:?b11
   \   0000A3 C7 50C4      LD        L:0x50c4, A
    385          
    386                  /* In manual mode, there is no risk to be stuck in a loop, value returned
    387                    is then always SUCCESS */
    388                  Swif = SUCCESS;
   \                     ??CLK_ClockSwitchConfig_6:
   \   0000A6 35 01 ....   MOV       S:?b10, #0x1
    389          
    390              }
    391          
    392              /* Switch OFF current clock if required */
    393              if ((CLK_CurrentClockState == CLK_CURRENTCLOCKSTATE_DISABLE) && ( clock_master == CLK_SOURCE_HSI))
   \                     ??CLK_ClockSwitchConfig_5:
   \   0000AA 3D ..        TNZ       S:?b14
   \   0000AC 26 1E        JRNE      L:??CLK_ClockSwitchConfig_9
   \   0000AE B6 ..        LD        A, S:?b0
   \   0000B0 A1 E1        CP        A, #0xe1
   \   0000B2 26 06        JRNE      L:??CLK_ClockSwitchConfig_10
    394              {
    395                  CLK->ICKR &= (uint8_t)(~CLK_ICKR_HSIEN);
   \   0000B4 7211 50C0    BRES      L:0x50c0, #0x0
   \   0000B8 20 12        JRA       L:??CLK_ClockSwitchConfig_9
    396              }
   \                     ??CLK_ClockSwitchConfig_10:
   \   0000BA A1 D2        CP        A, #0xd2
   \   0000BC 26 06        JRNE      L:??CLK_ClockSwitchConfig_11
    397              else if ((CLK_CurrentClockState == CLK_CURRENTCLOCKSTATE_DISABLE) && ( clock_master == CLK_SOURCE_LSI))
    398              {
    399                  CLK->ICKR &= (uint8_t)(~CLK_ICKR_LSIEN);
   \   0000BE 7217 50C0    BRES      L:0x50c0, #0x3
   \   0000C2 20 08        JRA       L:??CLK_ClockSwitchConfig_9
    400              }
   \                     ??CLK_ClockSwitchConfig_11:
   \   0000C4 A1 B4        CP        A, #0xb4
   \   0000C6 26 04        JRNE      L:??CLK_ClockSwitchConfig_9
    401              else if ((CLK_CurrentClockState == CLK_CURRENTCLOCKSTATE_DISABLE) && ( clock_master == CLK_SOURCE_HSE))
    402              {
    403                  CLK->ECKR &= (uint8_t)(~CLK_ECKR_HSEEN);
   \   0000C8 7211 50C1    BRES      L:0x50c1, #0x0
    404              }
    405          
    406              return(Swif);
   \                     ??CLK_ClockSwitchConfig_9:
   \   0000CC B6 ..        LD        A, S:?b10
   \   0000CE 32 ....      POP       S:?b14
   \   0000D1 CC ....      JP        L:?epilogue_l2_w6
    407          
    408          }
    409          
    410          /**
    411            * @brief  Configures the HSI clock dividers.
    412            * @param   HSIPrescaler : Specifies the HSI clock divider to apply.
    413            * This parameter can be any of the @ref CLK_Prescaler_TypeDef enumeration.
    414            * @retval None
    415            */

   \                                 In section .near_func.text, align 1
    416          void CLK_HSIPrescalerConfig(CLK_Prescaler_TypeDef HSIPrescaler)
    417          {
   \                     CLK_HSIPrescalerConfig:
   \   000000 3B ....      PUSH      S:?b8
   \   000003 B7 ..        LD        S:?b8, A
    418          
    419              /* check the parameters */
    420              assert_param(IS_CLK_HSIPRESCALER_OK(HSIPrescaler));
   \   000005 27 12        JREQ      L:??CrossCallReturnLabel_13
   \   000007 A1 08        CP        A, #0x8
   \   000009 27 0E        JREQ      L:??CrossCallReturnLabel_13
   \   00000B A1 10        CP        A, #0x10
   \   00000D 27 0A        JREQ      L:??CrossCallReturnLabel_13
   \   00000F A1 18        CP        A, #0x18
   \   000011 27 06        JREQ      L:??CrossCallReturnLabel_13
   \   000013 AE 01A4      LDW       X, #0x1a4
   \   000016 CD ....      CALL      L:?Subroutine0
    421          
    422              /* Clear High speed internal clock prescaler */
    423              CLK->CKDIVR &= (uint8_t)(~CLK_CKDIVR_HSIDIV);
   \                     ??CrossCallReturnLabel_13:
   \   000019 CD ....      CALL      L:?Subroutine1
    424          
    425              /* Set High speed internal clock prescaler */
    426              CLK->CKDIVR |= (uint8_t)HSIPrescaler;
   \                     ??CrossCallReturnLabel_24:
   \   00001C CA 50C6      OR        A, L:0x50c6
   \   00001F C7 50C6      LD        L:0x50c6, A
    427          
    428          }
   \   000022 32 ....      POP       S:?b8
   \   000025 81           RET

   \                                 In section .near_func.text, align 1
   \                     ?Subroutine1:
   \   000000 C6 50C6      LD        A, L:0x50c6
   \   000003 A4 E7        AND       A, #0xe7
   \   000005 C7 50C6      LD        L:0x50c6, A
   \   000008 B6 ..        LD        A, S:?b8
   \   00000A 81           RET
    429          
    430          /**
    431            * @brief  Output the selected clock on a dedicated I/O pin.
    432            * @param   CLK_CCO : Specifies the clock source.
    433            * This parameter can be any of the  @ref CLK_Output_TypeDef enumeration.
    434            * @retval None
    435            * @par Required preconditions:
    436            * The dedicated I/O pin must be set at 1 in the corresponding Px_CR1 register \n
    437            * to be set as input with pull-up or push-pull output.
    438            */

   \                                 In section .near_func.text, align 1
    439          void CLK_CCOConfig(CLK_Output_TypeDef CLK_CCO)
    440          {
   \                     CLK_CCOConfig:
   \   000000 3B ....      PUSH      S:?b8
   \   000003 B7 ..        LD        S:?b8, A
    441          
    442              /* check the parameters */
    443              assert_param(IS_CLK_OUTPUT_OK(CLK_CCO));
   \   000005 27 36        JREQ      L:??CrossCallReturnLabel_14
   \   000007 A1 04        CP        A, #0x4
   \   000009 27 32        JREQ      L:??CrossCallReturnLabel_14
   \   00000B A1 02        CP        A, #0x2
   \   00000D 27 2E        JREQ      L:??CrossCallReturnLabel_14
   \   00000F A1 08        CP        A, #0x8
   \   000011 27 2A        JREQ      L:??CrossCallReturnLabel_14
   \   000013 A1 0A        CP        A, #0xa
   \   000015 27 26        JREQ      L:??CrossCallReturnLabel_14
   \   000017 A1 0C        CP        A, #0xc
   \   000019 27 22        JREQ      L:??CrossCallReturnLabel_14
   \   00001B A1 0E        CP        A, #0xe
   \   00001D 27 1E        JREQ      L:??CrossCallReturnLabel_14
   \   00001F A1 10        CP        A, #0x10
   \   000021 27 1A        JREQ      L:??CrossCallReturnLabel_14
   \   000023 A1 12        CP        A, #0x12
   \   000025 27 16        JREQ      L:??CrossCallReturnLabel_14
   \   000027 A1 14        CP        A, #0x14
   \   000029 27 12        JREQ      L:??CrossCallReturnLabel_14
   \   00002B A1 16        CP        A, #0x16
   \   00002D 27 0E        JREQ      L:??CrossCallReturnLabel_14
   \   00002F A1 18        CP        A, #0x18
   \   000031 27 0A        JREQ      L:??CrossCallReturnLabel_14
   \   000033 A1 1A        CP        A, #0x1a
   \   000035 27 06        JREQ      L:??CrossCallReturnLabel_14
   \   000037 AE 01BB      LDW       X, #0x1bb
   \   00003A CD ....      CALL      L:?Subroutine0
    444          
    445              /* Clears of the CCO type bits part */
    446              CLK->CCOR &= (uint8_t)(~CLK_CCOR_CCOSEL);
   \                     ??CrossCallReturnLabel_14:
   \   00003D C6 50C9      LD        A, L:0x50c9
   \   000040 A4 E1        AND       A, #0xe1
   \   000042 C7 50C9      LD        L:0x50c9, A
    447          
    448              /* Selects the source provided on cco_ck output */
    449              CLK->CCOR |= (uint8_t)CLK_CCO;
   \   000045 B6 ..        LD        A, S:?b8
   \   000047 CA 50C9      OR        A, L:0x50c9
   \   00004A C7 50C9      LD        L:0x50c9, A
    450          
    451              /* Enable the clock output */
    452              CLK->CCOR |= CLK_CCOR_CCOEN;
   \   00004D 7210 50C9    BSET      L:0x50c9, #0x0
    453          
    454          }
   \   000051 32 ....      POP       S:?b8
   \   000054 81           RET
    455          
    456          /**
    457            * @brief   Enables or disables the specified CLK interrupts.
    458            * @param   CLK_IT This parameter specifies the interrupt sources.
    459            * It can be one of the values of @ref CLK_IT_TypeDef.
    460            * @param   NewState New state of the Interrupt.
    461            * Value accepted ENABLE, DISABLE.
    462            * @retval None
    463            */

   \                                 In section .near_func.text, align 1
    464          void CLK_ITConfig(CLK_IT_TypeDef CLK_IT, FunctionalState NewState)
    465          {
   \                     CLK_ITConfig:
   \   000000 CD ....      CALL      L:?push_w4
   \   000003 B7 ..        LD        S:?b8, A
   \   000005 45 .. ..     MOV       S:?b9, S:?b0
    466          
    467              /* check the parameters */
    468              assert_param(IS_FUNCTIONALSTATE_OK(NewState));
   \   000008 3D ..        TNZ       S:?b9
   \   00000A 27 0C        JREQ      L:??CrossCallReturnLabel_16
   \   00000C B6 ..        LD        A, S:?b9
   \   00000E A1 01        CP        A, #0x1
   \   000010 27 06        JREQ      L:??CrossCallReturnLabel_16
   \   000012 AE 01D4      LDW       X, #0x1d4
   \   000015 CD ....      CALL      L:?Subroutine0
    469              assert_param(IS_CLK_IT_OK(CLK_IT));
   \                     ??CrossCallReturnLabel_16:
   \   000018 B6 ..        LD        A, S:?b8
   \   00001A A1 0C        CP        A, #0xc
   \   00001C 27 0A        JREQ      L:??CrossCallReturnLabel_15
   \   00001E A1 1C        CP        A, #0x1c
   \   000020 27 06        JREQ      L:??CrossCallReturnLabel_15
   \   000022 AE 01D5      LDW       X, #0x1d5
   \   000025 CD ....      CALL      L:?Subroutine0
    470          
    471              if (NewState != DISABLE)
   \                     ??CrossCallReturnLabel_15:
   \   000028 3D ..        TNZ       S:?b9
   \   00002A 27 18        JREQ      L:??CLK_ITConfig_0
    472              {
    473                  switch (CLK_IT)
   \   00002C B6 ..        LD        A, S:?b8
   \   00002E A1 0C        CP        A, #0xc
   \   000030 27 0B        JREQ      L:??CLK_ITConfig_1
   \   000032 A1 1C        CP        A, #0x1c
   \   000034 26 23        JRNE      L:??CLK_ITConfig_2
    474                  {
    475                  case CLK_IT_SWIF: /* Enable the clock switch interrupt */
    476                      CLK->SWCR |= CLK_SWCR_SWIEN;
   \   000036 7214 50C5    BSET      L:0x50c5, #0x2
    477                      break;
   \   00003A CC ....      JP        L:?epilogue_w4
    478                  case CLK_IT_CSSD: /* Enable the clock security system detection interrupt */
    479                      CLK->CSSR |= CLK_CSSR_CSSDIE;
   \                     ??CLK_ITConfig_1:
   \   00003D 7214 50C8    BSET      L:0x50c8, #0x2
    480                      break;
   \   000041 CC ....      JP        L:?epilogue_w4
    481                  default:
    482                      break;
    483                  }
    484              }
    485              else  /*(NewState == DISABLE)*/
    486              {
    487                  switch (CLK_IT)
   \                     ??CLK_ITConfig_0:
   \   000044 B6 ..        LD        A, S:?b8
   \   000046 A1 0C        CP        A, #0xc
   \   000048 27 0B        JREQ      L:??CLK_ITConfig_3
   \   00004A A1 1C        CP        A, #0x1c
   \   00004C 26 0B        JRNE      L:??CLK_ITConfig_2
    488                  {
    489                  case CLK_IT_SWIF: /* Disable the clock switch interrupt */
    490                      CLK->SWCR  &= (uint8_t)(~CLK_SWCR_SWIEN);
   \   00004E 7215 50C5    BRES      L:0x50c5, #0x2
    491                      break;
   \   000052 CC ....      JP        L:?epilogue_w4
    492                  case CLK_IT_CSSD: /* Disable the clock security system detection interrupt */
    493                      CLK->CSSR &= (uint8_t)(~CLK_CSSR_CSSDIE);
   \                     ??CLK_ITConfig_3:
   \   000055 7215 50C8    BRES      L:0x50c8, #0x2
    494                      break;
    495                  default:
    496                      break;
    497                  }
    498              }
    499          
    500          }
   \                     ??CLK_ITConfig_2:
   \   000059 CC ....      JP        L:?epilogue_w4
    501          
    502          /**
    503            * @brief  Configures the HSI and CPU clock dividers.
    504            * @param   ClockPrescaler Specifies the HSI or CPU clock divider to apply.
    505            * @retval None
    506            */

   \                                 In section .near_func.text, align 1
    507          void CLK_SYSCLKConfig(CLK_Prescaler_TypeDef CLK_Prescaler)
    508          {
   \                     CLK_SYSCLKConfig:
   \   000000 3B ....      PUSH      S:?b8
   \   000003 B7 ..        LD        S:?b8, A
    509          
    510              /* check the parameters */
    511              assert_param(IS_CLK_PRESCALER_OK(CLK_Prescaler));
   \   000005 27 32        JREQ      L:??CrossCallReturnLabel_17
   \   000007 A1 08        CP        A, #0x8
   \   000009 27 2E        JREQ      L:??CrossCallReturnLabel_17
   \   00000B A1 10        CP        A, #0x10
   \   00000D 27 2A        JREQ      L:??CrossCallReturnLabel_17
   \   00000F A1 18        CP        A, #0x18
   \   000011 27 26        JREQ      L:??CrossCallReturnLabel_17
   \   000013 A1 80        CP        A, #0x80
   \   000015 27 22        JREQ      L:??CrossCallReturnLabel_17
   \   000017 A1 81        CP        A, #0x81
   \   000019 27 1E        JREQ      L:??CrossCallReturnLabel_17
   \   00001B A1 82        CP        A, #0x82
   \   00001D 27 1A        JREQ      L:??CrossCallReturnLabel_17
   \   00001F A1 83        CP        A, #0x83
   \   000021 27 16        JREQ      L:??CrossCallReturnLabel_17
   \   000023 A1 84        CP        A, #0x84
   \   000025 27 12        JREQ      L:??CrossCallReturnLabel_17
   \   000027 A1 85        CP        A, #0x85
   \   000029 27 0E        JREQ      L:??CrossCallReturnLabel_17
   \   00002B A1 86        CP        A, #0x86
   \   00002D 27 0A        JREQ      L:??CrossCallReturnLabel_17
   \   00002F A1 87        CP        A, #0x87
   \   000031 27 06        JREQ      L:??CrossCallReturnLabel_17
   \   000033 AE 01FF      LDW       X, #0x1ff
   \   000036 CD ....      CALL      L:?Subroutine0
    512          
    513              if (((uint8_t)CLK_Prescaler & (uint8_t)0x80) == 0x00) /* Bit7 = 0 means HSI divider */
   \                     ??CrossCallReturnLabel_17:
   \   000039 B6 ..        LD        A, S:?b8
   \   00003B A5 80        BCP       A, #0x80
   \   00003D 26 07        JRNE      L:??CLK_SYSCLKConfig_0
    514              {
    515                  CLK->CKDIVR &= (uint8_t)(~CLK_CKDIVR_HSIDIV);
   \   00003F CD ....      CALL      L:?Subroutine1
    516                  CLK->CKDIVR |= (uint8_t)((uint8_t)CLK_Prescaler & (uint8_t)CLK_CKDIVR_HSIDIV);
    517              }
   \                     ??CrossCallReturnLabel_23:
   \   000042 A4 18        AND       A, #0x18
   \   000044 20 0C        JRA       L:??CLK_SYSCLKConfig_1
    518              else /* Bit7 = 1 means CPU divider */
    519              {
    520                  CLK->CKDIVR &= (uint8_t)(~CLK_CKDIVR_CPUDIV);
   \                     ??CLK_SYSCLKConfig_0:
   \   000046 C6 50C6      LD        A, L:0x50c6
   \   000049 A4 F8        AND       A, #0xf8
   \   00004B C7 50C6      LD        L:0x50c6, A
    521                  CLK->CKDIVR |= (uint8_t)((uint8_t)CLK_Prescaler & (uint8_t)CLK_CKDIVR_CPUDIV);
   \   00004E B6 ..        LD        A, S:?b8
   \   000050 A4 07        AND       A, #0x7
   \                     ??CLK_SYSCLKConfig_1:
   \   000052 CA 50C6      OR        A, L:0x50c6
   \   000055 C7 50C6      LD        L:0x50c6, A
    522              }
    523          
    524          }
   \   000058 32 ....      POP       S:?b8
   \   00005B 81           RET
    525          /**
    526            * @brief  Configures the SWIM clock frequency on the fly.
    527            * @param   CLK_SWIMDivider Specifies the SWIM clock divider to apply.
    528            * can be one of the value of @ref CLK_SWIMDivider_TypeDef
    529            * @retval None
    530            */

   \                                 In section .near_func.text, align 1
    531          void CLK_SWIMConfig(CLK_SWIMDivider_TypeDef CLK_SWIMDivider)
    532          {
    533          
    534              /* check the parameters */
    535              assert_param(IS_CLK_SWIMDIVIDER_OK(CLK_SWIMDivider));
   \                     CLK_SWIMConfig:
   \   000000 4D           TNZ       A
   \   000001 27 0F        JREQ      L:??CLK_SWIMConfig_0
   \   000003 A1 01        CP        A, #0x1
   \   000005 27 06        JREQ      L:??CrossCallReturnLabel_18
   \   000007 AE 0217      LDW       X, #0x217
   \   00000A CD ....      CALL      L:?Subroutine0
    536          
    537              if (CLK_SWIMDivider != CLK_SWIMDIVIDER_2)
    538              {
    539                  /* SWIM clock is not divided by 2 */
    540                  CLK->SWIMCCR |= CLK_SWIMCCR_SWIMDIV;
   \                     ??CrossCallReturnLabel_18:
   \   00000D 7210 50CD    BSET      L:0x50cd, #0x0
   \   000011 81           RET
    541              }
    542              else /* CLK_SWIMDivider == CLK_SWIMDIVIDER_2 */
    543              {
    544                  /* SWIM clock is divided by 2 */
    545                  CLK->SWIMCCR &= (uint8_t)(~CLK_SWIMCCR_SWIMDIV);
   \                     ??CLK_SWIMConfig_0:
   \   000012 7211 50CD    BRES      L:0x50cd, #0x0
    546              }
    547          
    548          }
   \   000016 81           RET
    549          
    550          /**
    551            * @brief  Enables the Clock Security System.
    552            * @par Full description:
    553            * once CSS is enabled it cannot be disabled until the next reset.
    554            * @param  None
    555            * @retval None
    556            */

   \                                 In section .near_func.text, align 1
    557          void CLK_ClockSecuritySystemEnable(void)
    558          {
    559              /* Set CSSEN bit */
    560              CLK->CSSR |= CLK_CSSR_CSSEN;
   \                     CLK_ClockSecuritySystemEnable:
   \   000000 7210 50C8    BSET      L:0x50c8, #0x0
    561          }
   \   000004 81           RET
    562          
    563          /**
    564            * @brief  Returns the clock source used as system clock.
    565            * @param  None
    566            * @retval  Clock source used.
    567            * can be one of the values of @ref CLK_Source_TypeDef
    568            */

   \                                 In section .near_func.text, align 1
    569          CLK_Source_TypeDef CLK_GetSYSCLKSource(void)
    570          {
    571              return((CLK_Source_TypeDef)CLK->CMSR);
   \                     CLK_GetSYSCLKSource:
   \   000000 C6 50C3      LD        A, L:0x50c3
   \   000003 81           RET
    572          }
    573          
    574          /**
    575            * @brief  This function returns the frequencies of different on chip clocks.
    576            * @param  None
    577            * @retval the master clock frequency
    578            */

   \                                 In section .near_func.text, align 1
    579          uint32_t CLK_GetClockFreq(void)
    580          {
    581          
    582              uint32_t clockfrequency = 0;
    583              CLK_Source_TypeDef clocksource = CLK_SOURCE_HSI;
    584              uint8_t tmp = 0, presc = 0;
    585          
    586              /* Get CLK source. */
    587              clocksource = (CLK_Source_TypeDef)CLK->CMSR;
   \                     CLK_GetClockFreq:
   \   000000 C6 50C3      LD        A, L:0x50c3
    588          
    589              if (clocksource == CLK_SOURCE_HSI)
   \   000003 A1 E1        CP        A, #0xe1
   \   000005 26 1B        JRNE      L:??CLK_GetClockFreq_0
    590              {
    591                  tmp = (uint8_t)(CLK->CKDIVR & CLK_CKDIVR_HSIDIV);
   \   000007 C6 50C6      LD        A, L:0x50c6
    592                  tmp = (uint8_t)(tmp >> 3);
    593                  presc = HSIDivFactor[tmp];
    594                  clockfrequency = HSI_VALUE / presc;
   \   00000A 44           SRL       A
   \   00000B 44           SRL       A
   \   00000C 44           SRL       A
   \   00000D A4 03        AND       A, #0x3
   \   00000F 5F           CLRW      X
   \   000010 97           LD        XL, A
   \   000011 D6 ....      LD        A, (L:HSIDivFactor,X)
   \   000014 97           LD        XL, A
   \   000015 BF ..        LDW       S:?w3, X
   \   000017 5F           CLRW      X
   \   000018 BF ..        LDW       S:?w2, X
   \   00001A CD ....      CALL      L:?udiv32_l0_dl_l1
   \   00001D 00F42400     DC32      0xf42400
   \   000021 81           RET
    595              }
    596              else if ( clocksource == CLK_SOURCE_LSI)
   \                     ??CLK_GetClockFreq_0:
   \   000022 A1 D2        CP        A, #0xd2
   \   000024 26 0A        JRNE      L:??CLK_GetClockFreq_1
    597              {
    598                  clockfrequency = LSI_VALUE;
   \   000026 AE F400      LDW       X, #0xf400
   \   000029 BF ..        LDW       S:?w1, X
   \   00002B 5F           CLRW      X
   \   00002C 5C           INCW      X
   \   00002D BF ..        LDW       S:?w0, X
   \   00002F 81           RET
    599              }
    600              else
    601              {
    602                  clockfrequency = HSE_VALUE;
   \                     ??CLK_GetClockFreq_1:
   \   000030 AE 3600      LDW       X, #0x3600
   \   000033 BF ..        LDW       S:?w1, X
   \   000035 AE 016E      LDW       X, #0x16e
   \   000038 BF ..        LDW       S:?w0, X
    603              }
    604          
    605              return((uint32_t)clockfrequency);
   \   00003A 81           RET
    606          
    607          }
    608          
    609          /**
    610            * @brief  Adjusts the Internal High Speed oscillator (HSI) calibration value.
    611            * @par Full description:
    612            * @param   CLK_HSICalibrationValue calibration trimming value.
    613            * can be one of the values of @ref CLK_HSITrimValue_TypeDef
    614            * @retval None
    615            */

   \                                 In section .near_func.text, align 1
    616          void CLK_AdjustHSICalibrationValue(CLK_HSITrimValue_TypeDef CLK_HSICalibrationValue)
    617          {
   \                     CLK_AdjustHSICalibrationValue:
   \   000000 3B ....      PUSH      S:?b8
   \   000003 B7 ..        LD        S:?b8, A
    618          
    619              /* check the parameters */
    620              assert_param(IS_CLK_HSITRIMVALUE_OK(CLK_HSICalibrationValue));
   \   000005 27 22        JREQ      L:??CrossCallReturnLabel_19
   \   000007 A1 01        CP        A, #0x1
   \   000009 27 1E        JREQ      L:??CrossCallReturnLabel_19
   \   00000B A1 02        CP        A, #0x2
   \   00000D 27 1A        JREQ      L:??CrossCallReturnLabel_19
   \   00000F A1 03        CP        A, #0x3
   \   000011 27 16        JREQ      L:??CrossCallReturnLabel_19
   \   000013 A1 04        CP        A, #0x4
   \   000015 27 12        JREQ      L:??CrossCallReturnLabel_19
   \   000017 A1 05        CP        A, #0x5
   \   000019 27 0E        JREQ      L:??CrossCallReturnLabel_19
   \   00001B A1 06        CP        A, #0x6
   \   00001D 27 0A        JREQ      L:??CrossCallReturnLabel_19
   \   00001F A1 07        CP        A, #0x7
   \   000021 27 06        JREQ      L:??CrossCallReturnLabel_19
   \   000023 AE 026C      LDW       X, #0x26c
   \   000026 CD ....      CALL      L:?Subroutine0
    621          
    622              /* Store the new value */
    623              CLK->HSITRIMR = (uint8_t)( (uint8_t)(CLK->HSITRIMR & (uint8_t)(~CLK_HSITRIMR_HSITRIM))|((uint8_t)CLK_HSICalibrationValue));
   \                     ??CrossCallReturnLabel_19:
   \   000029 C6 50CC      LD        A, L:0x50cc
   \   00002C A4 F8        AND       A, #0xf8
   \   00002E BA ..        OR        A, S:?b8
   \   000030 C7 50CC      LD        L:0x50cc, A
    624          
    625          }
   \   000033 32 ....      POP       S:?b8
   \   000036 81           RET
    626          
    627          /**
    628            * @brief  Reset the SWBSY flag (SWICR Reister)
    629            * @par Full description:
    630            * This function reset SWBSY flag in order to reset clock switch operations (target
    631            * oscillator is broken, stabilization is longing too much, etc.).  If at the same time \n
    632            * software attempts to set SWEN and clear SWBSY, SWBSY action takes precedence.
    633            * @param  None
    634            * @retval None
    635            */

   \                                 In section .near_func.text, align 1
    636          void CLK_SYSCLKEmergencyClear(void)
    637          {
    638              CLK->SWCR &= (uint8_t)(~CLK_SWCR_SWBSY);
   \                     CLK_SYSCLKEmergencyClear:
   \   000000 7211 50C5    BRES      L:0x50c5, #0x0
    639          }
   \   000004 81           RET
    640          
    641          /**
    642            * @brief  Checks whether the specified CLK flag is set or not.
    643            * @par Full description:
    644            * @param   CLK_FLAG Flag to check.
    645            * can be one of the values of @ref CLK_Flag_TypeDef
    646            * @retval FlagStatus, status of the checked flag
    647            */

   \                                 In section .near_func.text, align 1
    648          FlagStatus CLK_GetFlagStatus(CLK_Flag_TypeDef CLK_FLAG)
    649          {
   \                     CLK_GetFlagStatus:
   \   000000 CD ....      CALL      L:?push_w4
   \   000003 3B ....      PUSH      S:?b10
   \   000006 BF ..        LDW       S:?w4, X
    650          
    651              uint16_t statusreg = 0;
    652              uint8_t tmpreg = 0;
    653              FlagStatus bitstatus = RESET;
   \   000008 3F ..        CLR       S:?b10
    654          
    655              /* check the parameters */
    656              assert_param(IS_CLK_FLAG_OK(CLK_FLAG));
   \   00000A A3 0110      CPW       X, #0x110
   \   00000D 27 2E        JREQ      L:??CrossCallReturnLabel_20
   \   00000F A3 0102      CPW       X, #0x102
   \   000012 27 29        JREQ      L:??CrossCallReturnLabel_20
   \   000014 A3 0202      CPW       X, #0x202
   \   000017 27 24        JREQ      L:??CrossCallReturnLabel_20
   \   000019 A3 0308      CPW       X, #0x308
   \   00001C 27 1F        JREQ      L:??CrossCallReturnLabel_20
   \   00001E A3 0301      CPW       X, #0x301
   \   000021 27 1A        JREQ      L:??CrossCallReturnLabel_20
   \   000023 A3 0408      CPW       X, #0x408
   \   000026 27 15        JREQ      L:??CrossCallReturnLabel_20
   \   000028 A3 0402      CPW       X, #0x402
   \   00002B 27 10        JREQ      L:??CrossCallReturnLabel_20
   \   00002D A3 0504      CPW       X, #0x504
   \   000030 27 0B        JREQ      L:??CrossCallReturnLabel_20
   \   000032 A3 0502      CPW       X, #0x502
   \   000035 27 06        JREQ      L:??CrossCallReturnLabel_20
   \   000037 AE 0290      LDW       X, #0x290
   \   00003A CD ....      CALL      L:?Subroutine0
    657          
    658              /* Get the CLK register index */
    659              statusreg = (uint16_t)((uint16_t)CLK_FLAG & (uint16_t)0xFF00);
   \                     ??CrossCallReturnLabel_20:
   \   00003D BE ..        LDW       X, S:?w4
   \   00003F 01           RRWA      X, A
   \   000040 4F           CLR       A
   \   000041 02           RLWA      X, A
    660          
    661          
    662              if (statusreg == 0x0100) /* The flag to check is in ICKRregister */
   \   000042 A3 0100      CPW       X, #0x100
   \   000045 26 05        JRNE      L:??CLK_GetFlagStatus_0
    663              {
    664                  tmpreg = CLK->ICKR;
   \   000047 C6 50C0      LD        A, L:0x50c0
   \   00004A 20 21        JRA       L:??CLK_GetFlagStatus_1
    665              }
    666              else if (statusreg == 0x0200) /* The flag to check is in ECKRregister */
   \                     ??CLK_GetFlagStatus_0:
   \   00004C A3 0200      CPW       X, #0x200
   \   00004F 26 05        JRNE      L:??CLK_GetFlagStatus_2
    667              {
    668                  tmpreg = CLK->ECKR;
   \   000051 C6 50C1      LD        A, L:0x50c1
   \   000054 20 17        JRA       L:??CLK_GetFlagStatus_1
    669              }
    670              else if (statusreg == 0x0300) /* The flag to check is in SWIC register */
   \                     ??CLK_GetFlagStatus_2:
   \   000056 A3 0300      CPW       X, #0x300
   \   000059 26 05        JRNE      L:??CLK_GetFlagStatus_3
    671              {
    672                  tmpreg = CLK->SWCR;
   \   00005B C6 50C5      LD        A, L:0x50c5
   \   00005E 20 0D        JRA       L:??CLK_GetFlagStatus_1
    673              }
    674              else if (statusreg == 0x0400) /* The flag to check is in CSS register */
   \                     ??CLK_GetFlagStatus_3:
   \   000060 A3 0400      CPW       X, #0x400
   \   000063 26 05        JRNE      L:??CLK_GetFlagStatus_4
    675              {
    676                  tmpreg = CLK->CSSR;
   \   000065 C6 50C8      LD        A, L:0x50c8
   \   000068 20 03        JRA       L:??CLK_GetFlagStatus_1
    677              }
    678              else /* The flag to check is in CCO register */
    679              {
    680                  tmpreg = CLK->CCOR;
   \                     ??CLK_GetFlagStatus_4:
   \   00006A C6 50C9      LD        A, L:0x50c9
   \                     ??CLK_GetFlagStatus_1:
   \   00006D B7 ..        LD        S:?b0, A
    681              }
    682          
    683              if ((tmpreg & (uint8_t)CLK_FLAG) != (uint8_t)RESET)
   \   00006F B6 ..        LD        A, S:?b9
   \   000071 B5 ..        BCP       A, S:?b0
   \   000073 27 04        JREQ      L:??CLK_GetFlagStatus_5
    684              {
    685                  bitstatus = SET;
   \   000075 35 01 ....   MOV       S:?b10, #0x1
    686              }
    687              else
    688              {
    689                  bitstatus = RESET;
    690              }
    691          
    692              /* Return the flag status */
    693              return((FlagStatus)bitstatus);
   \                     ??CLK_GetFlagStatus_5:
   \   000079 B6 ..        LD        A, S:?b10
   \   00007B 32 ....      POP       S:?b10
   \   00007E CC ....      JP        L:?epilogue_w4
    694          
    695          }
    696          
    697          /**
    698            * @brief  Checks whether the specified CLK interrupt has is enabled or not.
    699            * @param   CLK_IT specifies the CLK interrupt.
    700            * can be one of the values of @ref CLK_IT_TypeDef
    701            * @retval ITStatus, new state of CLK_IT (SET or RESET).
    702            */

   \                                 In section .near_func.text, align 1
    703          ITStatus CLK_GetITStatus(CLK_IT_TypeDef CLK_IT)
    704          {
   \                     CLK_GetITStatus:
   \   000000 CD ....      CALL      L:?push_w4
   \   000003 B7 ..        LD        S:?b9, A
    705          
    706              ITStatus bitstatus = RESET;
   \   000005 3F ..        CLR       S:?b8
    707          
    708              /* check the parameters */
    709              assert_param(IS_CLK_IT_OK(CLK_IT));
   \   000007 A1 0C        CP        A, #0xc
   \   000009 27 0A        JREQ      L:??CrossCallReturnLabel_21
   \   00000B A1 1C        CP        A, #0x1c
   \   00000D 27 18        JREQ      L:??CLK_GetITStatus_0
   \   00000F AE 02C5      LDW       X, #0x2c5
   \   000012 CD ....      CALL      L:?Subroutine0
    710          
    711              if (CLK_IT == CLK_IT_SWIF)
    712              {
    713                  /* Check the status of the clock switch interrupt */
    714                  if ((CLK->SWCR & (uint8_t)CLK_IT) == (uint8_t)0x0C)
    715                  {
    716                      bitstatus = SET;
    717                  }
    718                  else
    719                  {
    720                      bitstatus = RESET;
    721                  }
    722              }
    723              else /* CLK_IT == CLK_IT_CSSDIE */
    724              {
    725                  /* Check the status of the security system detection interrupt */
    726                  if ((CLK->CSSR & (uint8_t)CLK_IT) == (uint8_t)0x0C)
   \                     ??CrossCallReturnLabel_21:
   \   000015 B6 ..        LD        A, S:?b9
   \   000017 C4 50C8      AND       A, L:0x50c8
   \   00001A A1 0C        CP        A, #0xc
   \   00001C 26 04        JRNE      L:??CLK_GetITStatus_1
    727                  {
    728                      bitstatus = SET;
   \                     ??CLK_GetITStatus_2:
   \   00001E 35 01 ....   MOV       S:?b8, #0x1
    729                  }
    730                  else
    731                  {
    732                      bitstatus = RESET;
    733                  }
    734              }
    735          
    736              /* Return the CLK_IT status */
    737              return bitstatus;
   \                     ??CLK_GetITStatus_1:
   \   000022 B6 ..        LD        A, S:?b8
   \   000024 CC ....      JP        L:?epilogue_w4
   \                     ??CLK_GetITStatus_0:
   \   000027 C6 50C5      LD        A, L:0x50c5
   \   00002A A4 1C        AND       A, #0x1c
   \   00002C A1 0C        CP        A, #0xc
   \   00002E 26 F2        JRNE      L:??CLK_GetITStatus_1
   \   000030 20 EC        JRA       L:??CLK_GetITStatus_2
    738          
    739          }
    740          
    741          /**
    742            * @brief  Clears the CLKs interrupt pending bits.
    743            * @param   CLK_IT specifies the interrupt pending bits.
    744            * can be one of the values of @ref CLK_IT_TypeDef
    745            * @retval None
    746            */

   \                                 In section .near_func.text, align 1
    747          void CLK_ClearITPendingBit(CLK_IT_TypeDef CLK_IT)
    748          {
    749          
    750              /* check the parameters */
    751              assert_param(IS_CLK_IT_OK(CLK_IT));
   \                     CLK_ClearITPendingBit:
   \   000000 A1 0C        CP        A, #0xc
   \   000002 27 0F        JREQ      L:??CLK_ClearITPendingBit_0
   \   000004 A1 1C        CP        A, #0x1c
   \   000006 27 06        JREQ      L:??CrossCallReturnLabel_22
   \   000008 AE 02EF      LDW       X, #0x2ef
   \   00000B CD ....      CALL      L:?Subroutine0
    752          
    753              if (CLK_IT == (uint8_t)CLK_IT_CSSD)
    754              {
    755                  /* Clear the status of the security system detection interrupt */
    756                  CLK->CSSR &= (uint8_t)(~CLK_CSSR_CSSD);
    757              }
    758              else /* CLK_PendingBit == (uint8_t)CLK_IT_SWIF */
    759              {
    760                  /* Clear the status of the clock switch interrupt */
    761                  CLK->SWCR &= (uint8_t)(~CLK_SWCR_SWIF);
   \                     ??CrossCallReturnLabel_22:
   \   00000E 7217 50C5    BRES      L:0x50c5, #0x3
    762              }
    763          
    764          }
   \   000012 81           RET
   \                     ??CLK_ClearITPendingBit_0:
   \   000013 7217 50C8    BRES      L:0x50c8, #0x3
   \   000017 81           RET

   \                                 In section .near.rodata, align 1
   \                     `?<Constant "C:\\\\SNAP\\\\SNAP_100\\\\stm8...">`:
   \   000000 43 3A 5C 53  DC8 "C:\\SNAP\\SNAP_100\\stm8s_clk.c"
   \          4E 41 50 5C 
    765          /**
    766            * @}
    767            */
    768            
    769          /**
    770            * @}
    771            */
    772            
    773          /******************* (C) COPYRIGHT 2011 STMicroelectronics *****END OF FILE****/

   Section sizes:

   Bytes  Function/Label
   -----  --------------
      29  ?<Constant "C:\\SNAP\\SNAP_100\\stm8...">
      11  ?Subroutine0
      11  ?Subroutine1
       8  CLKPrescTable
      55  CLK_AdjustHSICalibrationValue
      23  CLK_CCOCmd
      85  CLK_CCOConfig
      24  CLK_ClearITPendingBit
       5  CLK_ClockSecuritySystemEnable
      23  CLK_ClockSwitchCmd
     212  CLK_ClockSwitchConfig
      54  CLK_DeInit
      23  CLK_FastHaltWakeUpCmd
      59  CLK_GetClockFreq
     129  CLK_GetFlagStatus
      50  CLK_GetITStatus
       4  CLK_GetSYSCLKSource
      23  CLK_HSECmd
      23  CLK_HSICmd
      38  CLK_HSIPrescalerConfig
      92  CLK_ITConfig
      23  CLK_LSICmd
     142  CLK_PeripheralClockConfig
      23  CLK_SWIMConfig
      92  CLK_SYSCLKConfig
       5  CLK_SYSCLKEmergencyClear
      23  CLK_SlowActiveHaltWakeUpCmd
       4  HSIDivFactor

 
    41 bytes in section .near.rodata
 1 252 bytes in section .near_func.text
 
 1 252 bytes of CODE  memory
    41 bytes of CONST memory

Errors: none
Warnings: none
