###############################################################################
#                                                                             #
# IAR C/C++ Compiler V1.40.1.50106 for STM8             27/Jun/2013  17:37:02 #
# Copyright 2010-2013 IAR Systems AB.                                         #
#                                                                             #
#    Source file  =  C:\Users\jurban\Documents\GitHub\7896_SNAP_100\Device_Se #
#                    rial_Handlers.c                                          #
#    Command line =  C:\Users\jurban\Documents\GitHub\7896_SNAP_100\Device_Se #
#                    rial_Handlers.c -e --enable_multibytes -On --no_cse      #
#                    --no_unroll --no_inline --no_code_motion --no_tbaa       #
#                    --no_cross_call --debug --code_model medium              #
#                    --data_model medium -o C:\Users\jurban\Documents\GitHub\ #
#                    7896_SNAP_100\Debug\Obj\ --dlib_config "C:\Program       #
#                    Files\IAR Systems\Embedded Workbench                     #
#                    6.5\stm8\LIB\dlstm8mmn.h" -D STM8S007 -lC                #
#                    C:\Users\jurban\Documents\GitHub\7896_SNAP_100\Debug\Lis #
#                    t\ -I .\ --no_system_include --require_prototypes        #
#                    --vregs 16                                               #
#    List file    =  C:\Users\jurban\Documents\GitHub\7896_SNAP_100\Debug\Lis #
#                    t\Device_Serial_Handlers.lst                             #
#    Object file  =  C:\Users\jurban\Documents\GitHub\7896_SNAP_100\Debug\Obj #
#                    \Device_Serial_Handlers.o                                #
#                                                                             #
#                                                                             #
###############################################################################

C:\Users\jurban\Documents\GitHub\7896_SNAP_100\Device_Serial_Handlers.c
      1          /**
      2            ******************************************************************************
      3           ********************************************************************************
      4            * @file    Device_Serial_handlers.c
      5            * @author  MCD Application Team
      6            * @version V2.1.0
      7            * @date    11-June-2013
      8            * @brief   This file contains all the functions for the uart3 peripheral.
      9            ******************************************************************************
     10            ******************************************************************************
     11            */
     12          
     13          /* Includes ------------------------------------------------------------------*/
     14          
     15          #include "stm8s_uart3.h"
     16          #include "stm8s_it.h"
     17          #define ETX 0x03
     18          #define STX 0x02
     19          #define DLE 0X10
     20          /* EXTERNAL ROUTINES */
     21          extern void CopyBuffer (char *dest, char *srce);
     22          extern void CopyBufferDevice(char srce[]);
     23          extern void CopyBufferCounted (char *dest, char *srce, int cntr);
     24          extern void FillBuffer (char bufr[],char filchr, int cntr);
     25          extern void UART3_SendData8(u8);
     26          extern int InitializeDeviceBuffer (char *bufr,char filchr, int cntr);
     27          extern int Add_Char_to_Buffer (char *bufr, int ptr, char chr);
     28          extern int Add_Integer_to_Buffer (char *bufr,int ptr, int vint);
     29          extern int Add_String_to_Buffer (char *bufr, int ptr, char *srce);
     30          void Add_Char_to_GS1011_Buffer (char chr);
     31          extern void Initialize_GS011_Xmit_buffer(void);
     32          extern void CopyBufferGS1011 (char dest[], char srce[]);
     33          void Add_String_to_GS1011_Buffer ( char *srce);
     34          
     35          void Check_Checksum_Device_Buffer(char bufr[]);/* EXTERNAL DATA */
     36          extern char checksum_Okay;
     37          extern char CID_Value;
     38          extern char Device_State;
     39          extern char DLECHR;
     40          extern char ETXCHR;
     41          extern char checksum_this;
     42          extern char* procptr;
     43          extern char Device_Processing_Buffer[];
     44          extern char Device_Xmit_Buffer[];
     45          extern int cntr,gtchr;
     46          extern char checksum;
     47          extern u8 Device_RX_InPtr;
     48          extern u8 Device_RX_OutPtr;
     49          extern int Device_Rcvr_Char_Count;
     50          extern u8 Device_Rcvr_Complete_flag;
     51          extern char Device_Update_Ready_for_Website_flag;
     52          extern u8 Device_Rcvr_State;
     53          extern u8 Device_Rcvr_char;
     54          extern int Device_Processing_Pointer;
     55          extern int Device_Rcvr_Pointer;
     56          extern char  *Device_Rcvr_Dest_Pointer;
     57          extern char Device_Receiver_Buffer[];
     58          extern char GS1011_Xmit_Buffer[];
     59          extern char Packet_Data_Buffer;
     60          extern u8 Device_Xmit_Complete_Flag;
     61          extern u8 Device_Xmit_Char;
     62          extern char Device_Xmit_Pointer;
     63          extern u8 Device_Xmit_Char_Count;
     64          extern u8 GS1011_Xmit_Char_Count;
     65          extern char GS1011_Xmit_Buffer[];
     66          
     67          /* EXTERNAL DATA STOCK MESSAGES */
     68          extern const int BFRSIZE;
     69          extern char   DEVICE_SOH; /*START OF TEXT 0X02*/
     70          extern int DEVICE_MSGLENGTH; /*LENGTH OF MESSAGE*/
     71          extern char DEVICE_COMMAND; /* COMMAND TYPE*/
     72          extern char DEVICE_PACKETDATA; 
     73          extern char DEVICE_CHECKSUM;
     74          extern char DEVICE_EOT; /*end of text*/
     75          extern char SNAPREADYHDR;
     76          extern char SNAPREADY;
     77          extern char SNAPREADYEND;
     78          extern char Powered[];
     79          extern char SendtoWebsiteHeader[];
     80          extern char SendtoWebsiteHeader1[];
     81          
     82          /* LOCAL DEFINITIONS */
     83          void InitDeviceUART(void);
     84          void Get_Device_Char(void);
     85          void Send_Next_Char_to_Device(void);
     86          /*void Make_Send_SNAP_Ready_Message(void);*/
     87          void Initialize_Device_receiver_buffer(void);
     88          void Handle_Device_State(void);
     89          void Assemble_and_Checksum_device_message(void);
     90          void Checksum_Device_Buffer(char *bufr);
     91          char Parse_Device_Rcvrd_Buffer(void);
     92          void Start_Device_Xmit (void);
     93          void Save_PValues(void);
     94          void Send_powered_Message(void);
     95          
     96          void Process_Receiver_Device_Message(void);
     97          void Process_Xmit_Device_Message(char bufr[], char bufr2[]);
     98          
     99          void Send_Powered(void);
    100          void Wait_For_Update(void);
    101          void Process_Received_Update(void);
    102          void Send_Update(void);
    103          void Send_Finished(void);
    104          void Convert_Update_Parameters(void);
    105          void Send_Powered_Wait_For_Update(void);
    106          /*****************************************************************************/
    107          /*****************************************************************************/
    108          /*****       device State machine                                        *****/
    109          /*****************************************************************************/
    110          /*****************************************************************************/

   \                                 In section .far_func.text, align 1
    111          void Handle_Device_State(void) {
    112            switch (Device_State) {
   \                     Handle_Device_State:
   \   000000 C6 ....      LD        A, L:Device_State
   \   000003 4D           TNZ       A
   \   000004 27 0E        JREQ      L:??Handle_Device_State_0
   \   000006 4A           DEC       A
   \   000007 27 11        JREQ      L:??Handle_Device_State_1
   \   000009 4A           DEC       A
   \   00000A 27 14        JREQ      L:??Handle_Device_State_2
   \   00000C 4A           DEC       A
   \   00000D 27 17        JREQ      L:??Handle_Device_State_3
   \   00000F 4A           DEC       A
   \   000010 27 1A        JREQ      L:??Handle_Device_State_4
   \   000012 20 1C        JRA       L:??Handle_Device_State_5
    113            case 0:
    114              Send_Powered();
   \                     ??Handle_Device_State_0:
   \   000014 8D ......    CALLF     Send_Powered
    115              break;
   \   000018 20 16        JRA       L:??Handle_Device_State_5
    116            case 1:
    117              Wait_For_Update();
   \                     ??Handle_Device_State_1:
   \   00001A 8D ......    CALLF     Wait_For_Update
    118              break;
   \   00001E 20 10        JRA       L:??Handle_Device_State_5
    119            case 2:
    120              Process_Received_Update();
   \                     ??Handle_Device_State_2:
   \   000020 8D ......    CALLF     Process_Received_Update
    121              break;
   \   000024 20 0A        JRA       L:??Handle_Device_State_5
    122            case 3:
    123              Send_Update();
   \                     ??Handle_Device_State_3:
   \   000026 8D ......    CALLF     Send_Update
    124              break;
   \   00002A 20 04        JRA       L:??Handle_Device_State_5
    125            case 4:
    126              Send_Finished();
   \                     ??Handle_Device_State_4:
   \   00002C 8D ......    CALLF     Send_Finished
    127              break;
    128            }
    129          }
   \                     ??Handle_Device_State_5:
   \   000030 87           RETF
    130          /*****************************************************************************/
    131          /* State 0 - Send_Powered                                                    */
    132          /*      Lets the Device know we're ready for the update                      */
    133          /*****************************************************************************/

   \                                 In section .far_func.text, align 1
    134          void Send_Powered(void){
    135            FillBuffer (Device_Receiver_Buffer,0x00, BFRSIZE);
   \                     Send_Powered:
   \   000000 90CE ....    LDW       Y, L:BFRSIZE
   \   000004 4F           CLR       A
   \   000005 AE ....      LDW       X, #Device_Receiver_Buffer
   \   000008 8D ......    CALLF     FillBuffer
    136            Send_powered_Message();
   \   00000C 8D ......    CALLF     Send_powered_Message
    137            Device_Update_Ready_for_Website_flag =0;
   \   000010 35 00 ....   MOV       L:Device_Update_Ready_for_Website_flag, #0x0
    138            Device_State = 1;
   \   000014 35 01 ....   MOV       L:Device_State, #0x1
    139          }
   \   000018 87           RETF
    140          /*****************************************************************************/
    141          /* State 1 - Wait_For_Update                                                 */
    142          /*      can't do much without the update data                                */
    143          /*****************************************************************************/

   \                                 In section .far_func.text, align 1
    144          void Wait_For_Update(void){
    145            if (Device_Rcvr_Complete_flag != 0)
   \                     Wait_For_Update:
   \   000000 C6 ....      LD        A, L:Device_Rcvr_Complete_flag
   \   000003 A1 00        CP        A, #0x0
   \   000005 27 04        JREQ      L:??Wait_For_Update_0
    146              Device_State = 2;
   \   000007 35 02 ....   MOV       L:Device_State, #0x2
    147          }
   \                     ??Wait_For_Update_0:
   \   00000B 87           RETF
    148          /*****************************************************************************/
    149          /* State 2 - Process_Update                                                  */
    150          /*      convert the update data to ASCII for the website                     */
    151          /*****************************************************************************/

   \                                 In section .far_func.text, align 1
    152          void Process_Received_Update(void){
    153            Process_Receiver_Device_Message();
   \                     Process_Received_Update:
   \   000000 8D ......    CALLF     Process_Receiver_Device_Message
    154            Check_Checksum_Device_Buffer(Device_Processing_Buffer);
   \   000004 AE ....      LDW       X, #Device_Processing_Buffer
   \   000007 8D ......    CALLF     Check_Checksum_Device_Buffer
    155            if (checksum_Okay == 00){
   \   00000B C6 ....      LD        A, L:checksum_Okay
   \   00000E A1 00        CP        A, #0x0
   \   000010 26 04        JRNE      L:??Process_Received_Update_0
    156                Device_State = 3;
   \   000012 35 03 ....   MOV       L:Device_State, #0x3
    157            }
    158          }
   \                     ??Process_Received_Update_0:
   \   000016 87           RETF
    159          /*****************************************************************************/
    160          /* State 3 - Send_Update                                                     */
    161          /*      Send the message up to the website                                   */
    162          /*****************************************************************************/

   \                                 In section .far_func.text, align 1
    163          void Send_Update(void){
    164            if (CID_Value != 0x00) {
   \                     Send_Update:
   \   000000 C6 ....      LD        A, L:CID_Value
   \   000003 A1 00        CP        A, #0x0
   \   000005 27 10        JREQ      L:??Send_Update_0
    165            FillBuffer (GS1011_Xmit_Buffer,0x00, BFRSIZE);
   \   000007 90CE ....    LDW       Y, L:BFRSIZE
   \   00000B 4F           CLR       A
   \   00000C AE ....      LDW       X, #GS1011_Xmit_Buffer
   \   00000F 8D ......    CALLF     FillBuffer
    166              Convert_Update_Parameters();   
   \   000013 8D ......    CALLF     Convert_Update_Parameters
    167            } 
    168          }
   \                     ??Send_Update_0:
   \   000017 87           RETF
    169          /*****************************************************************************/
    170          /* State 4 - Send_Finished                                                 */
    171          /*      got response from website                                 */
    172          /*****************************************************************************/

   \                                 In section .far_func.text, align 1
    173          void Send_Finished(void){
    174          }
   \                     Send_Finished:
   \   000000 87           RETF
    175          
    176            /* Check configuration data in EE */
    177            
    178            
    179            /*SendYouThereMessageToGS1011();
    180            InitializeGS1011Buffer();
    181            SendYouThereMessageToGS1011();*/
    182          
    183          /*****************************************************************************/
    184          /*****************************************************************************/
    185          /****         Send message wait response routines                          ***/
    186          /*****************************************************************************/
    187          /*****************************************************************************/

   \                                 In section .far_func.text, align 1
    188          void Convert_Update_Parameters(void){
    189           CID_Value = 0x30;
   \                     Convert_Update_Parameters:
   \   000000 35 30 ....   MOV       L:CID_Value, #0x30
    190           Initialize_GS011_Xmit_buffer();
   \   000004 8D ......    CALLF     Initialize_GS011_Xmit_buffer
    191           CopyBufferGS1011(GS1011_Xmit_Buffer, SendtoWebsiteHeader);
   \   000008 90AE ....    LDW       Y, #SendtoWebsiteHeader
   \   00000C AE ....      LDW       X, #GS1011_Xmit_Buffer
   \   00000F 8D ......    CALLF     CopyBufferGS1011
    192           Add_Char_to_GS1011_Buffer (CID_Value);
   \   000013 C6 ....      LD        A, L:CID_Value
   \   000016 8D ......    CALLF     Add_Char_to_GS1011_Buffer
    193           Add_String_to_GS1011_Buffer (SendtoWebsiteHeader1);
   \   00001A AE ....      LDW       X, #SendtoWebsiteHeader1
   \   00001D 8D ......    CALLF     Add_String_to_GS1011_Buffer
    194           }
   \   000021 87           RETF
    195          /*****************************************************************************/
    196          /*****        Send_powered_Message                                ****/
    197          /*****        1st byte in Device processed buffer is the character count  ****/
    198          /*****************************************************************************/

   \                                 In section .far_func.text, align 1
    199          void Send_powered_Message(void){
    200            Initialize_Device_receiver_buffer();
   \                     Send_powered_Message:
   \   000000 8D ......    CALLF     Initialize_Device_receiver_buffer
    201            CopyBufferDevice(Powered);
   \   000004 AE ....      LDW       X, #Powered
   \   000007 8D ......    CALLF     CopyBufferDevice
    202            Device_Xmit_Char_Count = Device_Xmit_Char_Count;
   \   00000B C6 ....      LD        A, L:Device_Xmit_Char_Count
   \   00000E C7 ....      LD        L:Device_Xmit_Char_Count, A
    203            Start_Device_Xmit ();
   \   000011 8D ......    CALLF     Start_Device_Xmit
    204          }
   \   000015 87           RETF
    205          /*****************************************************************************/
    206          /*****        Make_Send_SNAP_Ready_Message                                ****/
    207          /*****        1st byte in Device processed buffer is the character count  ****/
    208          /*****************************************************************************
    209          void Make_Send_SNAP_Ready_Message(void){
    210            FillBuffer (&Device_Xmit_Buffer,0x00, BFRSIZE);
    211            Device_Processing_Pointer = 0;
    212            Device_Processing_Pointer = Add_String_to_Buffer (&Device_Xmit_Buffer, Device_Processing_Pointer, &SNAPREADYHDR);
    213            Device_Processing_Pointer = Add_String_to_Buffer (&Device_Xmit_Buffer, Device_Processing_Pointer, &SNAPREADY);
    214            Device_Processing_Pointer = Add_String_to_Buffer (&Device_Xmit_Buffer, Device_Processing_Pointer, &SNAPREADYEND);
    215            Device_Xmit_Char_Count = CountChars(&Device_Xmit_Buffer);
    216            Start_Device_Xmit ();
    217          } */
    218          /*****************************************************************************/
    219          /*****        Assemble_and_Checksum_device_message                        ****/
    220          /*****        1st byte in Device processed buffer is the character count  ****/
    221          /*****************************************************************************/

   \                                 In section .far_func.text, align 1
    222          void Assemble_and_Checksum_device_message(void){
    223            Device_Processing_Pointer = InitializeDeviceBuffer (Device_Processing_Buffer, 0x00, BFRSIZE/2);
   \                     Assemble_and_Checksum_device_message:
   \   000000 CE ....      LDW       X, L:BFRSIZE
   \   000003 90AE 0002    LDW       Y, #0x2
   \   000007 8D ......    CALLF     L:?sdiv16_x_x_y
   \   00000B 9093         LDW       Y, X
   \   00000D 4F           CLR       A
   \   00000E AE ....      LDW       X, #Device_Processing_Buffer
   \   000011 8D ......    CALLF     InitializeDeviceBuffer
   \   000015 CF ....      LDW       L:Device_Processing_Pointer, X
    224            Device_Processing_Pointer = Add_Char_to_Buffer (Device_Processing_Buffer, Device_Processing_Pointer, DEVICE_SOH);
   \   000018 C6 ....      LD        A, L:DEVICE_SOH
   \   00001B 90CE ....    LDW       Y, L:Device_Processing_Pointer
   \   00001F AE ....      LDW       X, #Device_Processing_Buffer
   \   000022 8D ......    CALLF     Add_Char_to_Buffer
   \   000026 CF ....      LDW       L:Device_Processing_Pointer, X
    225            Device_Processing_Pointer = Add_Integer_to_Buffer (Device_Processing_Buffer, Device_Processing_Pointer, DEVICE_MSGLENGTH);
   \   000029 CE ....      LDW       X, L:DEVICE_MSGLENGTH
   \   00002C BF ..        LDW       S:?w0, X
   \   00002E 90CE ....    LDW       Y, L:Device_Processing_Pointer
   \   000032 AE ....      LDW       X, #Device_Processing_Buffer
   \   000035 8D ......    CALLF     Add_Integer_to_Buffer
   \   000039 CF ....      LDW       L:Device_Processing_Pointer, X
    226            Device_Processing_Pointer = Add_Char_to_Buffer (Device_Processing_Buffer, Device_Processing_Pointer, DEVICE_COMMAND);
   \   00003C C6 ....      LD        A, L:DEVICE_COMMAND
   \   00003F 90CE ....    LDW       Y, L:Device_Processing_Pointer
   \   000043 AE ....      LDW       X, #Device_Processing_Buffer
   \   000046 8D ......    CALLF     Add_Char_to_Buffer
   \   00004A CF ....      LDW       L:Device_Processing_Pointer, X
    227            Device_Processing_Pointer = Add_String_to_Buffer (Device_Processing_Buffer, Device_Processing_Pointer, &DEVICE_PACKETDATA);
   \   00004D AE ....      LDW       X, #DEVICE_PACKETDATA
   \   000050 BF ..        LDW       S:?w0, X
   \   000052 90CE ....    LDW       Y, L:Device_Processing_Pointer
   \   000056 AE ....      LDW       X, #Device_Processing_Buffer
   \   000059 8D ......    CALLF     Add_String_to_Buffer
   \   00005D CF ....      LDW       L:Device_Processing_Pointer, X
    228            Checksum_Device_Buffer(Device_Processing_Buffer);
   \   000060 AE ....      LDW       X, #Device_Processing_Buffer
   \   000063 8D ......    CALLF     Checksum_Device_Buffer
    229            Device_Processing_Pointer = Add_Char_to_Buffer (Device_Processing_Buffer, Device_Processing_Pointer, DEVICE_CHECKSUM);
   \   000067 C6 ....      LD        A, L:DEVICE_CHECKSUM
   \   00006A 90CE ....    LDW       Y, L:Device_Processing_Pointer
   \   00006E AE ....      LDW       X, #Device_Processing_Buffer
   \   000071 8D ......    CALLF     Add_Char_to_Buffer
   \   000075 CF ....      LDW       L:Device_Processing_Pointer, X
    230            Device_Processing_Pointer = Add_Char_to_Buffer (Device_Processing_Buffer, Device_Processing_Pointer, DEVICE_EOT);
   \   000078 C6 ....      LD        A, L:DEVICE_EOT
   \   00007B 90CE ....    LDW       Y, L:Device_Processing_Pointer
   \   00007F AE ....      LDW       X, #Device_Processing_Buffer
   \   000082 8D ......    CALLF     Add_Char_to_Buffer
   \   000086 CF ....      LDW       L:Device_Processing_Pointer, X
    231            /*Process_Device_Message(&Device_Xmit_Buffer, &Device_Processing_Buffer);
    232            Start_Device_Xmit ();          save the start of the buffer*/
    233          }
   \   000089 87           RETF
    234          /*****************************************************************************/
    235          /*****             Checksum_Device_Buffer                                 ****/
    236          /*****        1st byte in Device processed buffer is the character count  ****/
    237          /*****                                                                    ****/
    238          /*****  bytes from 1st after count to checksum byte are checksumed        ****/
    239          /*****************************************************************************/

   \                                 In section .far_func.text, align 1
    240          void Checksum_Device_Buffer(char bufr[]){
   \                     Checksum_Device_Buffer:
   \   000000 9093         LDW       Y, X
    241            checksum = 0;
   \   000002 35 00 ....   MOV       L:checksum, #0x0
    242            cntr = bufr[1];
   \   000006 93           LDW       X, Y
   \   000007 5C           INCW      X
   \   000008 F6           LD        A, (X)
   \   000009 5F           CLRW      X
   \   00000A 97           LD        XL, A
   \   00000B CF ....      LDW       L:cntr, X
    243            cntr = (cntr + bufr[2] * 256)+ 1;
   \   00000E 93           LDW       X, Y
   \   00000F 1C 0002      ADDW      X, #0x2
   \   000012 F6           LD        A, (X)
   \   000013 5F           CLRW      X
   \   000014 97           LD        XL, A
   \   000015 BF ..        LDW       S:?w1, X
   \   000017 AE 0100      LDW       X, #0x100
   \   00001A BF ..        LDW       S:?w0, X
   \   00001C BE ..        LDW       X, S:?w1
   \   00001E 8D ......    CALLF     L:?mul16_x_x_w0
   \   000022 5C           INCW      X
   \   000023 72BB ....    ADDW      X, L:cntr
   \   000027 CF ....      LDW       L:cntr, X
    244            for (gtchr = 1; gtchr < cntr; gtchr++){
   \   00002A 5F           CLRW      X
   \   00002B 5C           INCW      X
   \   00002C CF ....      LDW       L:gtchr, X
   \                     ??Checksum_Device_Buffer_0:
   \   00002F CE ....      LDW       X, L:gtchr
   \   000032 C3 ....      CPW       X, L:cntr
   \   000035 2E 15        JRSGE     L:??Checksum_Device_Buffer_1
    245                checksum += bufr[gtchr];  /*ADDIN THE BYTES OF THE PAYLOAD TO THE CHECKSUM*/
   \   000037 93           LDW       X, Y
   \   000038 72BB ....    ADDW      X, L:gtchr
   \   00003C F6           LD        A, (X)
   \   00003D CB ....      ADD       A, L:checksum
   \   000040 C7 ....      LD        L:checksum, A
    246              }
   \   000043 CE ....      LDW       X, L:gtchr
   \   000046 5C           INCW      X
   \   000047 CF ....      LDW       L:gtchr, X
   \   00004A 20 E3        JRA       L:??Checksum_Device_Buffer_0
    247              DEVICE_CHECKSUM = (0xFF55 - checksum);  /*Cksum to send*/
   \                     ??Checksum_Device_Buffer_1:
   \   00004C A6 55        LD        A, #0x55
   \   00004E C0 ....      SUB       A, L:checksum
   \   000051 C7 ....      LD        L:DEVICE_CHECKSUM, A
    248          }       
   \   000054 87           RETF

   \                                 In section .far_func.text, align 1
    249          void Check_Checksum_Device_Buffer(char bufr[]){
   \                     Check_Checksum_Device_Buffer:
   \   000000 9093         LDW       Y, X
    250            char chekchar;
    251            checksum = 0;
   \   000002 35 00 ....   MOV       L:checksum, #0x0
    252            cntr = bufr[1];
   \   000006 93           LDW       X, Y
   \   000007 5C           INCW      X
   \   000008 F6           LD        A, (X)
   \   000009 5F           CLRW      X
   \   00000A 97           LD        XL, A
   \   00000B CF ....      LDW       L:cntr, X
    253            cntr = (cntr + bufr[2] * 256)+ 1;
   \   00000E 93           LDW       X, Y
   \   00000F 1C 0002      ADDW      X, #0x2
   \   000012 F6           LD        A, (X)
   \   000013 5F           CLRW      X
   \   000014 97           LD        XL, A
   \   000015 BF ..        LDW       S:?w1, X
   \   000017 AE 0100      LDW       X, #0x100
   \   00001A BF ..        LDW       S:?w0, X
   \   00001C BE ..        LDW       X, S:?w1
   \   00001E 8D ......    CALLF     L:?mul16_x_x_w0
   \   000022 5C           INCW      X
   \   000023 72BB ....    ADDW      X, L:cntr
   \   000027 CF ....      LDW       L:cntr, X
    254            for (gtchr = 1; gtchr < cntr; gtchr++){
   \   00002A 5F           CLRW      X
   \   00002B 5C           INCW      X
   \   00002C CF ....      LDW       L:gtchr, X
   \                     ??Check_Checksum_Device_Buffer_0:
   \   00002F CE ....      LDW       X, L:gtchr
   \   000032 C3 ....      CPW       X, L:cntr
   \   000035 2E 15        JRSGE     L:??Check_Checksum_Device_Buffer_1
    255                checksum += bufr[gtchr];  /*ADDIN THE BYTES OF THE PAYLOAD TO THE CHECKSUM*/
   \   000037 93           LDW       X, Y
   \   000038 72BB ....    ADDW      X, L:gtchr
   \   00003C F6           LD        A, (X)
   \   00003D CB ....      ADD       A, L:checksum
   \   000040 C7 ....      LD        L:checksum, A
    256              }
   \   000043 CE ....      LDW       X, L:gtchr
   \   000046 5C           INCW      X
   \   000047 CF ....      LDW       L:gtchr, X
   \   00004A 20 E3        JRA       L:??Check_Checksum_Device_Buffer_0
    257            gtchr++;
   \                     ??Check_Checksum_Device_Buffer_1:
   \   00004C CE ....      LDW       X, L:gtchr
   \   00004F 5C           INCW      X
   \   000050 CF ....      LDW       L:gtchr, X
    258            chekchar = checksum += bufr[gtchr];
   \   000053 93           LDW       X, Y
   \   000054 72BB ....    ADDW      X, L:gtchr
   \   000058 F6           LD        A, (X)
   \   000059 CB ....      ADD       A, L:checksum
   \   00005C C7 ....      LD        L:checksum, A
   \   00005F B7 ..        LD        S:?b4, A
    259            if (chekchar == 0x55)
   \   000061 B6 ..        LD        A, S:?b4
   \   000063 A1 55        CP        A, #0x55
   \   000065 26 06        JRNE      L:??Check_Checksum_Device_Buffer_2
    260                checksum_Okay = 00;
   \   000067 35 00 ....   MOV       L:checksum_Okay, #0x0
   \   00006B 20 04        JRA       L:??Check_Checksum_Device_Buffer_3
    261            else
    262                 checksum_Okay = 01;
   \                     ??Check_Checksum_Device_Buffer_2:
   \   00006D 35 01 ....   MOV       L:checksum_Okay, #0x1
    263          
    264            DEVICE_CHECKSUM = (0xFF55 - checksum);  /*Cksum to send*/
   \                     ??Check_Checksum_Device_Buffer_3:
   \   000071 A6 55        LD        A, #0x55
   \   000073 C0 ....      SUB       A, L:checksum
   \   000076 C7 ....      LD        L:DEVICE_CHECKSUM, A
    265          }
   \   000079 87           RETF
    266          
    267          /*****************************************************************************/
    268          /*****             Process_Device_Message                                 ****/
    269          /*****        takes the buffer it's passed and inserts DLEs where necess. ****/
    270          /*****************************************************************************/

   \                                 In section .far_func.text, align 1
    271          void Process_Xmit_Device_Message(char bufr[], char bufr2[]){
   \                     Process_Xmit_Device_Message:
   \   000000 8D ......    CALLF     L:?push_l2
   \   000004 BF ..        LDW       S:?w4, X
   \   000006 90BF ..      LDW       S:?w5, Y
    272           u16 bfrptr;
    273           u16 xmtptr;
    274           u8 i;
    275           for (bfrptr = 0; bfrptr <3; bfrptr++){      /* PUT SOH, PACKET COUNT INTO*/
   \   000009 5F           CLRW      X
   \   00000A 9093         LDW       Y, X
   \                     ??Process_Xmit_Device_Message_0:
   \   00000C 90A3 0003    CPW       Y, #0x3
   \   000010 24 12        JRNC      L:??Process_Xmit_Device_Message_1
    276            bufr2[bfrptr] = bufr[bfrptr];               /*XMIT BUFFER*/  
   \   000012 93           LDW       X, Y
   \   000013 72BB ....    ADDW      X, S:?w4
   \   000017 F6           LD        A, (X)
   \   000018 93           LDW       X, Y
   \   000019 72BB ....    ADDW      X, S:?w5
   \   00001D F7           LD        (X), A
    277           }
   \   00001E 93           LDW       X, Y
   \   00001F 5C           INCW      X
   \   000020 9093         LDW       Y, X
   \   000022 20 E8        JRA       L:??Process_Xmit_Device_Message_0
    278          xmtptr = bfrptr;
   \                     ??Process_Xmit_Device_Message_1:
   \   000024 90BF ..      LDW       S:?w1, Y
    279          cntr = bufr[1];
   \   000027 BE ..        LDW       X, S:?w4
   \   000029 5C           INCW      X
   \   00002A F6           LD        A, (X)
   \   00002B 5F           CLRW      X
   \   00002C 97           LD        XL, A
   \   00002D CF ....      LDW       L:cntr, X
    280          cntr = cntr + ((bufr[2] * 256)+3);
   \   000030 BE ..        LDW       X, S:?w4
   \   000032 1C 0002      ADDW      X, #0x2
   \   000035 F6           LD        A, (X)
   \   000036 5F           CLRW      X
   \   000037 97           LD        XL, A
   \   000038 BF ..        LDW       S:?w2, X
   \   00003A AE 0100      LDW       X, #0x100
   \   00003D BF ..        LDW       S:?w0, X
   \   00003F BE ..        LDW       X, S:?w2
   \   000041 8D ......    CALLF     L:?mul16_x_x_w0
   \   000045 1C 0003      ADDW      X, #0x3
   \   000048 72BB ....    ADDW      X, L:cntr
   \   00004C CF ....      LDW       L:cntr, X
    281          
    282          for (bfrptr = bfrptr; bfrptr <cntr; bfrptr++){
   \                     ??Process_Xmit_Device_Message_2:
   \   00004F 90C3 ....    CPW       Y, L:cntr
   \   000053 24 59        JRNC      L:??Process_Xmit_Device_Message_3
    283            i = bufr[bfrptr];
   \   000055 93           LDW       X, Y
   \   000056 72BB ....    ADDW      X, S:?w4
   \   00005A F6           LD        A, (X)
   \   00005B B7 ..        LD        S:?b6, A
    284            if (bufr[bfrptr]== 0x02 || bufr[bfrptr] == 0x03 || bufr[bfrptr] == 0x10|| bufr[bfrptr] == ','){
   \   00005D 93           LDW       X, Y
   \   00005E 72BB ....    ADDW      X, S:?w4
   \   000062 F6           LD        A, (X)
   \   000063 A1 02        CP        A, #0x2
   \   000065 27 1E        JREQ      L:??Process_Xmit_Device_Message_4
   \   000067 93           LDW       X, Y
   \   000068 72BB ....    ADDW      X, S:?w4
   \   00006C F6           LD        A, (X)
   \   00006D A1 03        CP        A, #0x3
   \   00006F 27 14        JREQ      L:??Process_Xmit_Device_Message_4
   \   000071 93           LDW       X, Y
   \   000072 72BB ....    ADDW      X, S:?w4
   \   000076 F6           LD        A, (X)
   \   000077 A1 10        CP        A, #0x10
   \   000079 27 0A        JREQ      L:??Process_Xmit_Device_Message_4
   \   00007B 93           LDW       X, Y
   \   00007C 72BB ....    ADDW      X, S:?w4
   \   000080 F6           LD        A, (X)
   \   000081 A1 2C        CP        A, #0x2c
   \   000083 26 15        JRNE      L:??Process_Xmit_Device_Message_5
    285               i ^= 0xFF;
   \                     ??Process_Xmit_Device_Message_4:
   \   000085 B6 ..        LD        A, S:?b6
   \   000087 A8 FF        XOR       A, #0xff
   \   000089 B7 ..        LD        S:?b6, A
    286              bufr2[xmtptr] =  DLECHR;
   \   00008B BE ..        LDW       X, S:?w1
   \   00008D 72BB ....    ADDW      X, S:?w5
   \   000091 C6 ....      LD        A, L:DLECHR
   \   000094 F7           LD        (X), A
    287              xmtptr++;
   \   000095 BE ..        LDW       X, S:?w1
   \   000097 5C           INCW      X
   \   000098 BF ..        LDW       S:?w1, X
    288            }
    289            bufr2[xmtptr] =  i;
   \                     ??Process_Xmit_Device_Message_5:
   \   00009A BE ..        LDW       X, S:?w1
   \   00009C 72BB ....    ADDW      X, S:?w5
   \   0000A0 B6 ..        LD        A, S:?b6
   \   0000A2 F7           LD        (X), A
    290            xmtptr++;
   \   0000A3 BE ..        LDW       X, S:?w1
   \   0000A5 5C           INCW      X
   \   0000A6 BF ..        LDW       S:?w1, X
    291           }
   \   0000A8 93           LDW       X, Y
   \   0000A9 5C           INCW      X
   \   0000AA 9093         LDW       Y, X
   \   0000AC 20 A1        JRA       L:??Process_Xmit_Device_Message_2
    292          bufr2[xmtptr] =  ETXCHR;
   \                     ??Process_Xmit_Device_Message_3:
   \   0000AE BE ..        LDW       X, S:?w1
   \   0000B0 72BB ....    ADDW      X, S:?w5
   \   0000B4 C6 ....      LD        A, L:ETXCHR
   \   0000B7 F7           LD        (X), A
    293          }
   \   0000B8 AC ......    JPF       L:?epilogue_l2
    294          /*****************************************************************************/
    295          /*****************************************************************************/
    296          /*****  INITIALIZE RECEIVER BUFFER                                       *****/
    297          /*****************************************************************************/
    298          /*****************************************************************************/

   \                                 In section .far_func.text, align 1
    299          void Initialize_Device_receiver_buffer(void){
    300            FillBuffer (Device_Receiver_Buffer,0x00, BFRSIZE);
   \                     Initialize_Device_receiver_buffer:
   \   000000 90CE ....    LDW       Y, L:BFRSIZE
   \   000004 4F           CLR       A
   \   000005 AE ....      LDW       X, #Device_Receiver_Buffer
   \   000008 8D ......    CALLF     FillBuffer
    301            Device_RX_InPtr=0;
   \   00000C 35 00 ....   MOV       L:Device_RX_InPtr, #0x0
    302            Device_RX_OutPtr=0;
   \   000010 35 00 ....   MOV       L:Device_RX_OutPtr, #0x0
    303          }
   \   000014 87           RETF
    304          /*****************************************************************************/
    305          /*****************************************************************************/
    306          /****                        ISR routines                                  ***/
    307          /*****************************************************************************/
    308          /*****************************************************************************/
    309          
    310          /*****************************************************************************/
    311          /*****        Get_Device_Char  - UART3 RCV INTERRUPT                      ****/
    312          /*****        1st byte in Device processed buffer is the character count  ****/
    313          /*****************************************************************************/

   \                                 In section .far_func.text, align 1
    314          void Get_Device_Char(void){
    315            Device_Rcvr_char = ((u8)UART3->DR);
   \                     Get_Device_Char:
   \   000000 C6 5241      LD        A, L:0x5241
   \   000003 C7 ....      LD        L:Device_Rcvr_char, A
    316            Device_Receiver_Buffer[Device_RX_InPtr] = Device_Rcvr_char;
   \   000006 C6 ....      LD        A, L:Device_RX_InPtr
   \   000009 5F           CLRW      X
   \   00000A 97           LD        XL, A
   \   00000B C6 ....      LD        A, L:Device_Rcvr_char
   \   00000E D7 ....      LD        (L:Device_Receiver_Buffer,X), A
    317            if (Device_Rcvr_char == 0x03)
   \   000011 C6 ....      LD        A, L:Device_Rcvr_char
   \   000014 A1 03        CP        A, #0x3
   \   000016 26 04        JRNE      L:??Get_Device_Char_0
    318                Device_Rcvr_Complete_flag = 1;
   \   000018 35 01 ....   MOV       L:Device_Rcvr_Complete_flag, #0x1
    319            Device_RX_InPtr++;
   \                     ??Get_Device_Char_0:
   \   00001C C6 ....      LD        A, L:Device_RX_InPtr
   \   00001F AB 01        ADD       A, #0x1
   \   000021 C7 ....      LD        L:Device_RX_InPtr, A
    320          }
   \   000024 87           RETF
    321          
    322          /*****************************************************************************/
    323          /*****************************************************************************/
    324          /*****        Device Receive message handlers                            *****/
    325          /*****************************************************************************/
    326          /*****************************************************************************/
    327          
    328          /*****************************************************************************/
    329          /*****             Process_Receiver_Device_Message                        ****/
    330          /*****   takes the buffer it's passed and unescapes where necess.         ****/
    331          /*****************************************************************************/

   \                                 In section .far_func.text, align 1
    332          void Process_Receiver_Device_Message(void){
    333           u16 bfrptr;
    334           u16 xmtptr;
    335           u8 i;
    336          xmtptr =0;
   \                     Process_Receiver_Device_Message:
   \   000000 5F           CLRW      X
   \   000001 9093         LDW       Y, X
    337          for (bfrptr = 0; bfrptr <BFRSIZE; bfrptr++){
   \   000003 5F           CLRW      X
   \   000004 BF ..        LDW       S:?w0, X
   \                     ??Process_Receiver_Device_Message_0:
   \   000006 BE ..        LDW       X, S:?w0
   \   000008 C3 ....      CPW       X, L:BFRSIZE
   \   00000B 24 3F        JRNC      L:??Process_Receiver_Device_Message_1
    338            i = Device_Receiver_Buffer[bfrptr];
   \   00000D BE ..        LDW       X, S:?w0
   \   00000F D6 ....      LD        A, (L:Device_Receiver_Buffer,X)
   \   000012 B7 ..        LD        S:?b2, A
    339            if (i == 0x03) {
   \   000014 B6 ..        LD        A, S:?b2
   \   000016 A1 03        CP        A, #0x3
   \   000018 26 08        JRNE      L:??Process_Receiver_Device_Message_2
    340              Device_Processing_Buffer[xmtptr] =  i;
   \   00001A B6 ..        LD        A, S:?b2
   \   00001C 93           LDW       X, Y
   \   00001D D7 ....      LD        (L:Device_Processing_Buffer,X), A
    341              break;
   \   000020 20 2A        JRA       L:??Process_Receiver_Device_Message_1
    342              }
    343            if (Device_Receiver_Buffer[bfrptr] == 0x10){
   \                     ??Process_Receiver_Device_Message_2:
   \   000022 A6 10        LD        A, #0x10
   \   000024 BE ..        LDW       X, S:?w0
   \   000026 D1 ....      CP        A, (L:Device_Receiver_Buffer,X)
   \   000029 26 12        JRNE      L:??Process_Receiver_Device_Message_3
    344              bfrptr++;
   \   00002B BE ..        LDW       X, S:?w0
   \   00002D 5C           INCW      X
   \   00002E BF ..        LDW       S:?w0, X
    345              i = Device_Receiver_Buffer[bfrptr];
   \   000030 BE ..        LDW       X, S:?w0
   \   000032 D6 ....      LD        A, (L:Device_Receiver_Buffer,X)
   \   000035 B7 ..        LD        S:?b2, A
    346               i ^= 0xFF;
   \   000037 B6 ..        LD        A, S:?b2
   \   000039 A8 FF        XOR       A, #0xff
   \   00003B B7 ..        LD        S:?b2, A
    347            }
    348            Device_Processing_Buffer[xmtptr] =  i;
   \                     ??Process_Receiver_Device_Message_3:
   \   00003D B6 ..        LD        A, S:?b2
   \   00003F 93           LDW       X, Y
   \   000040 D7 ....      LD        (L:Device_Processing_Buffer,X), A
    349            xmtptr++;
   \   000043 905C         INCW      Y
    350           }
   \   000045 BE ..        LDW       X, S:?w0
   \   000047 5C           INCW      X
   \   000048 BF ..        LDW       S:?w0, X
   \   00004A 20 BA        JRA       L:??Process_Receiver_Device_Message_0
    351          }
   \                     ??Process_Receiver_Device_Message_1:
   \   00004C 87           RETF
    352          /*****************************************************************************/
    353          /*****************************************************************************/
    354          /*****        Device xmit message handlers                               *****/
    355          /*****************************************************************************/
    356          /*****************************************************************************/
    357          
    358          /*****************************************************************************/
    359          /*****        start Device xmit                                           ****/
    360          /*****        calling routine MUST:                                       ****/
    361          /*****           Device_Xmit_Pointer = Address of buffer to be sent       ****/
    362          /*****           Device_Xmit_Char_Count = number of characters to send    ****/
    363          /*****                                                                    ****/
    364          /*****      puts 1st character in the data reg. and enables xmit and int  ****/
    365          /*****************************************************************************/

   \                                 In section .far_func.text, align 1
    366          void Start_Device_Xmit (void){
    367            Device_Xmit_Pointer = 0;
   \                     Start_Device_Xmit:
   \   000000 35 00 ....   MOV       L:Device_Xmit_Pointer, #0x0
    368            Device_Xmit_Char = Device_Xmit_Buffer[Device_Xmit_Pointer];
   \   000004 C6 ....      LD        A, L:Device_Xmit_Pointer
   \   000007 5F           CLRW      X
   \   000008 97           LD        XL, A
   \   000009 D6 ....      LD        A, (L:Device_Xmit_Buffer,X)
   \   00000C C7 ....      LD        L:Device_Xmit_Char, A
    369            Device_Xmit_Pointer++;
   \   00000F C6 ....      LD        A, L:Device_Xmit_Pointer
   \   000012 AB 01        ADD       A, #0x1
   \   000014 C7 ....      LD        L:Device_Xmit_Pointer, A
    370            Device_Xmit_Char_Count--;
   \   000017 C6 ....      LD        A, L:Device_Xmit_Char_Count
   \   00001A AB FF        ADD       A, #0xff
   \   00001C C7 ....      LD        L:Device_Xmit_Char_Count, A
    371            Device_Xmit_Complete_Flag =1;
   \   00001F 35 01 ....   MOV       L:Device_Xmit_Complete_Flag, #0x1
    372            UART3->DR = Device_Xmit_Char;
   \   000023 C6 ....      LD        A, L:Device_Xmit_Char
   \   000026 C7 5241      LD        L:0x5241, A
    373            UART3->CR2 |= (uint8_t)UART3_CR2_TCIEN | UART3_CR2_TIEN;
   \   000029 C6 5245      LD        A, L:0x5245
   \   00002C AA C0        OR        A, #0xc0
   \   00002E C7 5245      LD        L:0x5245, A
    374            while (Device_Xmit_Complete_Flag == 1)
   \                     ??Start_Device_Xmit_0:
   \   000031 C6 ....      LD        A, L:Device_Xmit_Complete_Flag
   \   000034 A1 01        CP        A, #0x1
   \   000036 27 F9        JREQ      L:??Start_Device_Xmit_0
    375            {};
    376          }
   \   000038 87           RETF
    377          /*****************************************************************************/
    378          /*****        Device xmit - UART3 XMIT INTERRUPT HANDLER                  *****/
    379          /*****        sends characters till the count expires, on the next int.   ****/
    380          /*****             turnf off the txmit enable, once TXE is low            ****/
    381          /*****************************************************************************/

   \                                 In section .far_func.text, align 1
    382          void Send_Next_Char_to_Device(void){
    383            if (UART3->SR &= UART3_FLAG_TXE){
   \                     Send_Next_Char_to_Device:
   \   000000 C6 5240      LD        A, L:0x5240
   \   000003 A4 80        AND       A, #0x80
   \   000005 C7 5240      LD        L:0x5240, A
   \   000008 4D           TNZ       A
   \   000009 27 49        JREQ      L:??Send_Next_Char_to_Device_0
    384            if (Device_Xmit_Char_Count != 0){
   \   00000B C6 ....      LD        A, L:Device_Xmit_Char_Count
   \   00000E A1 00        CP        A, #0x0
   \   000010 27 36        JREQ      L:??Send_Next_Char_to_Device_1
    385              Device_Xmit_Char = Device_Xmit_Buffer[Device_Xmit_Pointer];
   \   000012 C6 ....      LD        A, L:Device_Xmit_Pointer
   \   000015 5F           CLRW      X
   \   000016 97           LD        XL, A
   \   000017 D6 ....      LD        A, (L:Device_Xmit_Buffer,X)
   \   00001A C7 ....      LD        L:Device_Xmit_Char, A
    386            if (Device_Xmit_Char == 0x03){
   \   00001D C6 ....      LD        A, L:Device_Xmit_Char
   \   000020 A1 03        CP        A, #0x3
   \   000022 26 0C        JRNE      L:??Send_Next_Char_to_Device_2
    387               Device_Xmit_Char_Count = 0;
   \   000024 35 00 ....   MOV       L:Device_Xmit_Char_Count, #0x0
    388              UART3->DR = Device_Xmit_Char;
   \   000028 C6 ....      LD        A, L:Device_Xmit_Char
   \   00002B C7 5241      LD        L:0x5241, A
   \   00002E 20 24        JRA       L:??Send_Next_Char_to_Device_0
    389              }
    390            else{
    391              Device_Xmit_Pointer++;
   \                     ??Send_Next_Char_to_Device_2:
   \   000030 C6 ....      LD        A, L:Device_Xmit_Pointer
   \   000033 AB 01        ADD       A, #0x1
   \   000035 C7 ....      LD        L:Device_Xmit_Pointer, A
    392              Device_Xmit_Char_Count--;
   \   000038 C6 ....      LD        A, L:Device_Xmit_Char_Count
   \   00003B AB FF        ADD       A, #0xff
   \   00003D C7 ....      LD        L:Device_Xmit_Char_Count, A
    393              UART3->DR = Device_Xmit_Char;
   \   000040 C6 ....      LD        A, L:Device_Xmit_Char
   \   000043 C7 5241      LD        L:0x5241, A
   \   000046 20 0C        JRA       L:??Send_Next_Char_to_Device_0
    394            }
    395           }
    396            else {
    397              UART3->CR2 &= (uint8_t)(~(UART3_CR2_TIEN | UART3_CR2_TCIEN ));  
   \                     ??Send_Next_Char_to_Device_1:
   \   000048 C6 5245      LD        A, L:0x5245
   \   00004B A4 3F        AND       A, #0x3f
   \   00004D C7 5245      LD        L:0x5245, A
    398              Device_Xmit_Complete_Flag = 0;
   \   000050 35 00 ....   MOV       L:Device_Xmit_Complete_Flag, #0x0
    399            }
    400            }
    401          }
   \                     ??Send_Next_Char_to_Device_0:
   \   000054 87           RETF
    402          /*****************************************************************************/
    403          /*****        Device Initialize/DeInit                                   *****/
    404          /*****************************************************************************/
    405          /*****************************************************************************/

   \                                 In section .far_func.text, align 1
    406          void InitDeviceUART(void)
    407          {
    408            UART3_Init(9600, UART3_WORDLENGTH_8D, 
    409                           UART3_STOPBITS_1,  UART3_PARITY_NO, 
    410                           UART3_MODE_TXRX_ENABLE);
   \                     InitDeviceUART:
   \   000000 35 0C ....   MOV       S:?b6, #0xc
   \   000004 3F ..        CLR       S:?b5
   \   000006 3F ..        CLR       S:?b4
   \   000008 4F           CLR       A
   \   000009 AE 2580      LDW       X, #0x2580
   \   00000C BF ..        LDW       S:?w1, X
   \   00000E 5F           CLRW      X
   \   00000F BF ..        LDW       S:?w0, X
   \   000011 8D ......    CALLF     UART3_Init
    411            UART3->CR2 |= 0x20;  /*UART3 RX INTERRUPT ENABLE*/
   \   000015 721A 5245    BSET      L:0x5245, #0x5
    412            Device_Rcvr_State = 0;
   \   000019 35 00 ....   MOV       L:Device_Rcvr_State, #0x0
    413            Device_Rcvr_Complete_flag = 0;
   \   00001D 35 00 ....   MOV       L:Device_Rcvr_Complete_flag, #0x0
    414          }
   \   000021 87           RETF
    415          
    416          /*****************************************************************************/
    417          /*****                          UART3_DeInit                              ****/
    418          /***** Clear the Idle Line Detected bit in the status rerister by a read  ****/
    419          /***** to the UART3_SR register followed by a Read to the UART3_DR register **/
    420          /*****************************************************************************/

   \                                 In section .far_func.text, align 1
    421          void UART3_DeInit(void)
    422          {
    423              /* Clear the Idle Line Detected bit in the status rerister by a read
    424                 to the UART3_SR register followed by a Read to the UART3_DR register */
    425              (void) UART3->SR;
   \                     UART3_DeInit:
   \   000000 C6 5240      LD        A, L:0x5240
   \   000003 B7 ..        LD        S:?b0, A
    426              (void) UART3->DR;
   \   000005 C6 5241      LD        A, L:0x5241
    427          
    428              UART3->BRR2 = UART3_BRR2_RESET_VALUE; /*Set UART3_BRR2 to reset value 0x00 */
   \   000008 35 00 5243   MOV       L:0x5243, #0x0
    429              UART3->BRR1 = UART3_BRR1_RESET_VALUE; /*Set UART3_BRR1 to reset value 0x00 */
   \   00000C 35 00 5242   MOV       L:0x5242, #0x0
    430          
    431              UART3->CR1 = UART3_CR1_RESET_VALUE;  /*Set UART3_CR1 to reset value 0x00  */
   \   000010 35 00 5244   MOV       L:0x5244, #0x0
    432              UART3->CR2 = UART3_CR2_RESET_VALUE;  /*Set UART3_CR2 to reset value 0x00  */
   \   000014 35 00 5245   MOV       L:0x5245, #0x0
    433              UART3->CR3 = UART3_CR3_RESET_VALUE;  /*Set UART3_CR3 to reset value 0x00  */
   \   000018 35 00 5246   MOV       L:0x5246, #0x0
    434              UART3->CR4 = UART3_CR4_RESET_VALUE;  /*Set UART3_CR4 to reset value 0x00  */
   \   00001C 35 00 5247   MOV       L:0x5247, #0x0
    435              UART3->CR6 = UART3_CR6_RESET_VALUE;  /*Set UART3_CR6 to reset value 0x00  */
   \   000020 35 00 5249   MOV       L:0x5249, #0x0
    436          
    437          }
   \   000024 87           RETF
    438          
    439          /*****************************************************************************/
    440          /*****                          UART3_Init                                ****/
    441          /*****************************************************************************/
    442          /**
    443            * @brief  Initializes the UART3 according to the specified parameters.
    444            * @param  BaudRate: The baudrate.
    445            * @param  WordLength : This parameter can be any of 
    446            *         the @ref UART3_WordLength_TypeDef enumeration.
    447            * @param  StopBits: This parameter can be any of the 
    448            *         @ref UART3_StopBits_TypeDef enumeration.
    449            * @param  Parity: This parameter can be any of the 
    450            *         @ref UART3_Parity_TypeDef enumeration.
    451            * @param  Mode: This parameter can be any of the @ref UART3_Mode_TypeDef values
    452            * @retval None
    453            */

   \                                 In section .far_func.text, align 1
    454          void UART3_Init(uint32_t BaudRate, UART3_WordLength_TypeDef WordLength, 
    455                          UART3_StopBits_TypeDef StopBits, UART3_Parity_TypeDef Parity, 
    456                          UART3_Mode_TypeDef Mode)
    457          {
   \                     UART3_Init:
   \   000000 8D ......    CALLF     L:?push_l2
   \   000004 8D ......    CALLF     L:?push_l3
   \   000008 88           PUSH      A
   \   000009 3B ....      PUSH      S:?b4
   \   00000C 3B ....      PUSH      S:?b5
   \   00000F 3B ....      PUSH      S:?b6
   \   000012 52 07        SUB       SP, #0x7
   \   000014 8D ......    CALLF     L:?mov_l2_l0
    458              uint8_t BRR2_1 = 0, BRR2_2 = 0;
   \   000018 4F           CLR       A
   \   000019 6B 02        LD        (0x2,SP), A
   \   00001B 4F           CLR       A
   \   00001C 6B 01        LD        (0x1,SP), A
    459              uint32_t BaudRate_Mantissa = 0, BaudRate_Mantissa100 = 0;
   \   00001E 5F           CLRW      X
   \   00001F BF ..        LDW       S:?w7, X
   \   000021 BF ..        LDW       S:?w6, X
   \   000023 AE 0000      LDW       X, #0x0
   \   000026 1F 04        LDW       (0x4,SP), X
   \   000028 AE 0000      LDW       X, #0x0
   \   00002B 1F 06        LDW       (0x6,SP), X
    460          
    461                  /* Check the parameters */
    462              assert_param(IS_UART3_WORDLENGTH_OK(WordLength));
   \   00002D 0D 0B        TNZ       (0xb,SP)
   \   00002F 27 15        JREQ      L:??UART3_Init_0
   \   000031 7B 0B        LD        A, (0xb,SP)
   \   000033 A1 10        CP        A, #0x10
   \   000035 27 0F        JREQ      L:??UART3_Init_0
   \   000037 AE 01CE      LDW       X, #0x1ce
   \   00003A BF ..        LDW       S:?w1, X
   \   00003C 5F           CLRW      X
   \   00003D BF ..        LDW       S:?w0, X
   \   00003F AE ....      LDW       X, #`?<Constant "C:\\\\Users\\\\jurban\\\\Docum...">`
   \   000042 8D ......    CALLF     assert_failed
    463              assert_param(IS_UART3_STOPBITS_OK(StopBits));
   \                     ??UART3_Init_0:
   \   000046 0D 0A        TNZ       (0xa,SP)
   \   000048 27 15        JREQ      L:??UART3_Init_1
   \   00004A 7B 0A        LD        A, (0xa,SP)
   \   00004C A1 20        CP        A, #0x20
   \   00004E 27 0F        JREQ      L:??UART3_Init_1
   \   000050 AE 01CF      LDW       X, #0x1cf
   \   000053 BF ..        LDW       S:?w1, X
   \   000055 5F           CLRW      X
   \   000056 BF ..        LDW       S:?w0, X
   \   000058 AE ....      LDW       X, #`?<Constant "C:\\\\Users\\\\jurban\\\\Docum...">`
   \   00005B 8D ......    CALLF     assert_failed
    464              assert_param(IS_UART3_PARITY_OK(Parity));
   \                     ??UART3_Init_1:
   \   00005F 0D 09        TNZ       (0x9,SP)
   \   000061 27 1B        JREQ      L:??UART3_Init_2
   \   000063 7B 09        LD        A, (0x9,SP)
   \   000065 A1 04        CP        A, #0x4
   \   000067 27 15        JREQ      L:??UART3_Init_2
   \   000069 7B 09        LD        A, (0x9,SP)
   \   00006B A1 06        CP        A, #0x6
   \   00006D 27 0F        JREQ      L:??UART3_Init_2
   \   00006F AE 01D0      LDW       X, #0x1d0
   \   000072 BF ..        LDW       S:?w1, X
   \   000074 5F           CLRW      X
   \   000075 BF ..        LDW       S:?w0, X
   \   000077 AE ....      LDW       X, #`?<Constant "C:\\\\Users\\\\jurban\\\\Docum...">`
   \   00007A 8D ......    CALLF     assert_failed
    465              assert_param(IS_UART3_BAUDRATE_OK(BaudRate));
   \                     ??UART3_Init_2:
   \   00007E BE ..        LDW       X, S:?w4
   \   000080 A3 0009      CPW       X, #0x9
   \   000083 26 05        JRNE      L:??UART3_Init_3
   \   000085 BE ..        LDW       X, S:?w5
   \   000087 A3 8969      CPW       X, #0x8969
   \                     ??UART3_Init_3:
   \   00008A 25 0F        JRC       L:??UART3_Init_4
   \   00008C AE 01D1      LDW       X, #0x1d1
   \   00008F BF ..        LDW       S:?w1, X
   \   000091 5F           CLRW      X
   \   000092 BF ..        LDW       S:?w0, X
   \   000094 AE ....      LDW       X, #`?<Constant "C:\\\\Users\\\\jurban\\\\Docum...">`
   \   000097 8D ......    CALLF     assert_failed
    466              assert_param(IS_UART3_MODE_OK((uint8_t)Mode));
   \                     ??UART3_Init_4:
   \   00009B 7B 08        LD        A, (0x8,SP)
   \   00009D A1 08        CP        A, #0x8
   \   00009F 27 3F        JREQ      L:??UART3_Init_5
   \   0000A1 7B 08        LD        A, (0x8,SP)
   \   0000A3 A1 40        CP        A, #0x40
   \   0000A5 27 39        JREQ      L:??UART3_Init_5
   \   0000A7 7B 08        LD        A, (0x8,SP)
   \   0000A9 A1 04        CP        A, #0x4
   \   0000AB 27 33        JREQ      L:??UART3_Init_5
   \   0000AD 7B 08        LD        A, (0x8,SP)
   \   0000AF A1 80        CP        A, #0x80
   \   0000B1 27 2D        JREQ      L:??UART3_Init_5
   \   0000B3 7B 08        LD        A, (0x8,SP)
   \   0000B5 A1 0C        CP        A, #0xc
   \   0000B7 27 27        JREQ      L:??UART3_Init_5
   \   0000B9 7B 08        LD        A, (0x8,SP)
   \   0000BB A1 0C        CP        A, #0xc
   \   0000BD 27 21        JREQ      L:??UART3_Init_5
   \   0000BF 7B 08        LD        A, (0x8,SP)
   \   0000C1 A1 44        CP        A, #0x44
   \   0000C3 27 1B        JREQ      L:??UART3_Init_5
   \   0000C5 7B 08        LD        A, (0x8,SP)
   \   0000C7 A1 C0        CP        A, #0xc0
   \   0000C9 27 15        JREQ      L:??UART3_Init_5
   \   0000CB 7B 08        LD        A, (0x8,SP)
   \   0000CD A1 88        CP        A, #0x88
   \   0000CF 27 0F        JREQ      L:??UART3_Init_5
   \   0000D1 AE 01D2      LDW       X, #0x1d2
   \   0000D4 BF ..        LDW       S:?w1, X
   \   0000D6 5F           CLRW      X
   \   0000D7 BF ..        LDW       S:?w0, X
   \   0000D9 AE ....      LDW       X, #`?<Constant "C:\\\\Users\\\\jurban\\\\Docum...">`
   \   0000DC 8D ......    CALLF     assert_failed
    467          
    468              /* Clear the word length bit */
    469              UART3->CR1 &= (uint8_t)(~UART3_CR1_M);     
   \                     ??UART3_Init_5:
   \   0000E0 7219 5244    BRES      L:0x5244, #0x4
    470              /* Set the word length bit according to UART3_WordLength value */
    471              UART3->CR1 |= (uint8_t)WordLength; 
   \   0000E4 7B 0B        LD        A, (0xb,SP)
   \   0000E6 CA 5244      OR        A, L:0x5244
   \   0000E9 C7 5244      LD        L:0x5244, A
    472          
    473              /* Clear the STOP bits */
    474              UART3->CR3 &= (uint8_t)(~UART3_CR3_STOP);  
   \   0000EC C6 5246      LD        A, L:0x5246
   \   0000EF A4 CF        AND       A, #0xcf
   \   0000F1 C7 5246      LD        L:0x5246, A
    475              /* Set the STOP bits number according to UART3_StopBits value  */
    476              UART3->CR3 |= (uint8_t)StopBits;  
   \   0000F4 7B 0A        LD        A, (0xa,SP)
   \   0000F6 CA 5246      OR        A, L:0x5246
   \   0000F9 C7 5246      LD        L:0x5246, A
    477          
    478              /* Clear the Parity Control bit */
    479              UART3->CR1 &= (uint8_t)(~(UART3_CR1_PCEN | UART3_CR1_PS));  
   \   0000FC C6 5244      LD        A, L:0x5244
   \   0000FF A4 F9        AND       A, #0xf9
   \   000101 C7 5244      LD        L:0x5244, A
    480              /* Set the Parity Control bit to UART3_Parity value */
    481              UART3->CR1 |= (uint8_t)Parity;     
   \   000104 7B 09        LD        A, (0x9,SP)
   \   000106 CA 5244      OR        A, L:0x5244
   \   000109 C7 5244      LD        L:0x5244, A
    482          
    483              /* Clear the LSB mantissa of UART3DIV  */
    484              UART3->BRR1 &= (uint8_t)(~UART3_BRR1_DIVM);  
   \   00010C C6 5242      LD        A, L:0x5242
   \   00010F 6B 03        LD        (0x3,SP), A
   \   000111 35 00 5242   MOV       L:0x5242, #0x0
    485              /* Clear the MSB mantissa of UART3DIV  */
    486              UART3->BRR2 &= (uint8_t)(~UART3_BRR2_DIVM);  
   \   000115 C6 5243      LD        A, L:0x5243
   \   000118 A4 0F        AND       A, #0xf
   \   00011A C7 5243      LD        L:0x5243, A
    487              /* Clear the Fraction bits of UART3DIV */
    488              UART3->BRR2 &= (uint8_t)(~UART3_BRR2_DIVF);  
   \   00011D C6 5243      LD        A, L:0x5243
   \   000120 A4 F0        AND       A, #0xf0
   \   000122 C7 5243      LD        L:0x5243, A
    489          
    490              /* Set the UART3 BaudRates in BRR1 and BRR2 registers according to UART3_BaudRate value */
    491              BaudRate_Mantissa    = ((uint32_t)CLK_GetClockFreq() / (BaudRate << 4));
   \   000125 8D ......    CALLF     L:?mov_l0_l2
   \   000129 A6 04        LD        A, #0x4
   \   00012B 8D ......    CALLF     L:?sll32_l0_l0_a
   \   00012F 8D ......    CALLF     L:?push_l0
   \   000133 8D ......    CALLF     CLK_GetClockFreq
   \   000137 8D ......    CALLF     L:?pop_l1
   \   00013B 8D ......    CALLF     L:?udiv32_l0_l0_l1
   \   00013F 8D ......    CALLF     L:?mov_l3_l0
    492              BaudRate_Mantissa100 = (((uint32_t)CLK_GetClockFreq() * 100) / (BaudRate << 4));
   \   000143 8D ......    CALLF     L:?mov_l0_l2
   \   000147 A6 04        LD        A, #0x4
   \   000149 8D ......    CALLF     L:?sll32_l0_l0_a
   \   00014D 8D ......    CALLF     L:?push_l0
   \   000151 8D ......    CALLF     CLK_GetClockFreq
   \   000155 8D ......    CALLF     L:?mov_l1_l0
   \   000159 AE 0064      LDW       X, #0x64
   \   00015C BF ..        LDW       S:?w1, X
   \   00015E 5F           CLRW      X
   \   00015F BF ..        LDW       S:?w0, X
   \   000161 8D ......    CALLF     L:?mul32_l0_l0_l1
   \   000165 8D ......    CALLF     L:?pop_l1
   \   000169 8D ......    CALLF     L:?udiv32_l0_l0_l1
   \   00016D AE 0004      LDW       X, #0x4
   \   000170 8D ......    CALLF     L:?load32_xsp_l0
    493              /* The fraction and MSB mantissa should be loaded in one step in the BRR2 register */
    494              /* Set the fraction of UART3DIV  */
    495              BRR2_1 = (uint8_t)((uint8_t)(((BaudRate_Mantissa100 - (BaudRate_Mantissa * 100))
    496                                  << 4) / 100) & (uint8_t)0x0F); 
   \   000174 AE 0064      LDW       X, #0x64
   \   000177 BF ..        LDW       S:?w3, X
   \   000179 5F           CLRW      X
   \   00017A BF ..        LDW       S:?w2, X
   \   00017C 8D ......    CALLF     L:?mov_l0_l3
   \   000180 8D ......    CALLF     L:?mul32_l0_l0_l1
   \   000184 8D ......    CALLF     L:?mov_l1_l0
   \   000188 8D ......    CALLF     L:?load32_l0_dbsp
   \   00018C 04           DC8       0x4
   \   00018D 8D ......    CALLF     L:?sub32_l0_l0_l1
   \   000191 A6 04        LD        A, #0x4
   \   000193 8D ......    CALLF     L:?sll32_l0_l0_a
   \   000197 8D ......    CALLF     L:?udiv32_l0_l0_dl
   \   00019B 00000064     DC32      0x64
   \   00019F B6 ..        LD        A, S:?b3
   \   0001A1 A4 0F        AND       A, #0xf
   \   0001A3 6B 02        LD        (0x2,SP), A
    497              BRR2_2 = (uint8_t)((BaudRate_Mantissa >> 4) & (uint8_t)0xF0);
   \   0001A5 BE ..        LDW       X, S:?w7
   \   0001A7 54           SRLW      X
   \   0001A8 54           SRLW      X
   \   0001A9 54           SRLW      X
   \   0001AA 54           SRLW      X
   \   0001AB 9F           LD        A, XL
   \   0001AC A4 F0        AND       A, #0xf0
   \   0001AE 6B 01        LD        (0x1,SP), A
    498          
    499              UART3->BRR2 = (uint8_t)(BRR2_1 | BRR2_2);
   \   0001B0 7B 01        LD        A, (0x1,SP)
   \   0001B2 1A 02        OR        A, (0x2,SP)
   \   0001B4 C7 5243      LD        L:0x5243, A
    500              /* Set the LSB mantissa of UART3DIV  */
    501              UART3->BRR1 = (uint8_t)BaudRate_Mantissa;           
   \   0001B7 B6 ..        LD        A, S:?b15
   \   0001B9 C7 5242      LD        L:0x5242, A
    502          
    503              if ((uint8_t)(Mode & UART3_MODE_TX_ENABLE))
   \   0001BC 7B 08        LD        A, (0x8,SP)
   \   0001BE A4 04        AND       A, #0x4
   \   0001C0 A1 00        CP        A, #0x0
   \   0001C2 27 06        JREQ      L:??UART3_Init_6
    504              {
    505                  /* Set the Transmitter Enable bit */
    506                  UART3->CR2 |= UART3_CR2_TEN;  
   \   0001C4 7216 5245    BSET      L:0x5245, #0x3
   \   0001C8 20 04        JRA       L:??UART3_Init_7
    507              }
    508              else
    509              {
    510                  /* Clear the Transmitter Disable bit */
    511                  UART3->CR2 &= (uint8_t)(~UART3_CR2_TEN);  
   \                     ??UART3_Init_6:
   \   0001CA 7217 5245    BRES      L:0x5245, #0x3
    512              }
    513              if ((uint8_t)(Mode & UART3_MODE_RX_ENABLE))
   \                     ??UART3_Init_7:
   \   0001CE 7B 08        LD        A, (0x8,SP)
   \   0001D0 A4 08        AND       A, #0x8
   \   0001D2 A1 00        CP        A, #0x0
   \   0001D4 27 06        JREQ      L:??UART3_Init_8
    514              {
    515                  /* Set the Receiver Enable bit */
    516                  UART3->CR2 |= UART3_CR2_REN;  
   \   0001D6 7214 5245    BSET      L:0x5245, #0x2
   \   0001DA 20 04        JRA       L:??UART3_Init_9
    517              }
    518              else
    519              {
    520                  /* Clear the Receiver Disable bit */
    521                  UART3->CR2 &= (uint8_t)(~UART3_CR2_REN);  
   \                     ??UART3_Init_8:
   \   0001DC 7215 5245    BRES      L:0x5245, #0x2
    522              }
    523          }
   \                     ??UART3_Init_9:
   \   0001E0 5B 0B        ADD       SP, #0xb
   \   0001E2 AC ......    JPF       L:?epilogue_l2_l3

   \                                 In section .near.rodata, align 1
   \                     `?<Constant "C:\\\\Users\\\\jurban\\\\Docum...">`:
   \   000000 43 3A 5C 55  DC8 43H, 3AH, 5CH, 55H, 73H, 65H, 72H, 73H
   \          73 65 72 73 
   \   000008 5C 6A 75 72  DC8 5CH, 6AH, 75H, 72H, 62H, 61H, 6EH, 5CH
   \          62 61 6E 5C 
   \   000010 44 6F 63 75  DC8 44H, 6FH, 63H, 75H, 6DH, 65H, 6EH, 74H
   \          6D 65 6E 74 
   \   000018 73 5C 47 69  DC8 73H, 5CH, 47H, 69H, 74H, 48H, 75H, 62H
   \          74 48 75 62 
   \   000020 5C 37 38 39  DC8 5CH, 37H, 38H, 39H, 36H, 5FH, 53H, 4EH
   \          36 5F 53 4E 
   \   000028 41 50 5F 31  DC8 41H, 50H, 5FH, 31H, 30H, 30H, 5CH, 44H
   \          30 30 5C 44 
   \   000030 65 76 69 63  DC8 65H, 76H, 69H, 63H, 65H, 5FH, 53H, 65H
   \          65 5F 53 65 
   \   000038 72 69 61 6C  DC8 72H, 69H, 61H, 6CH, 5FH, 48H, 61H, 6EH
   \          5F 48 61 6E 
   \   000040 64 6C 65 72  DC8 64H, 6CH, 65H, 72H, 73H, 2EH, 63H, 0
   \          73 2E 63 00 
    524          /******************* (C) COPYRIGHT 2013 MARS INTERNATIONAL *****END OF FILE****/

   Section sizes:

   Bytes  Function/Label
   -----  --------------
      72  ?<Constant "C:\\Users\\jurban\\Docum...">
     138  Assemble_and_Checksum_device_message
     122  Check_Checksum_Device_Buffer
      85  Checksum_Device_Buffer
      34  Convert_Update_Parameters
      37  Get_Device_Char
      49  Handle_Device_State
      34  InitDeviceUART
      21  Initialize_Device_receiver_buffer
      23  Process_Received_Update
      77  Process_Receiver_Device_Message
     188  Process_Xmit_Device_Message
       1  Send_Finished
      85  Send_Next_Char_to_Device
      25  Send_Powered
      24  Send_Update
      22  Send_powered_Message
      57  Start_Device_Xmit
      37  UART3_DeInit
     486  UART3_Init
      12  Wait_For_Update

 
 1 557 bytes in section .far_func.text
    72 bytes in section .near.rodata
 
 1 557 bytes of CODE  memory
    72 bytes of CONST memory

Errors: none
Warnings: none
